
lesson_1.elf:     file format elf32-avr

Sections:
Idx Name          Size      VMA       LMA       File off  Algn
  0 .text         00001424  00000000  00000000  00000074  2**1
                  CONTENTS, ALLOC, LOAD, READONLY, CODE
  1 .bss          0000006c  00800060  00800060  00001498  2**0
                  ALLOC
  2 .comment      00000030  00000000  00000000  00001498  2**0
                  CONTENTS, READONLY
  3 .debug_aranges 00000088  00000000  00000000  000014c8  2**0
                  CONTENTS, READONLY, DEBUGGING
  4 .debug_info   000015cf  00000000  00000000  00001550  2**0
                  CONTENTS, READONLY, DEBUGGING
  5 .debug_abbrev 00000272  00000000  00000000  00002b1f  2**0
                  CONTENTS, READONLY, DEBUGGING
  6 .debug_line   000006bd  00000000  00000000  00002d91  2**0
                  CONTENTS, READONLY, DEBUGGING
  7 .debug_frame  00000194  00000000  00000000  00003450  2**2
                  CONTENTS, READONLY, DEBUGGING
  8 .debug_str    000002a7  00000000  00000000  000035e4  2**0
                  CONTENTS, READONLY, DEBUGGING
  9 .debug_loc    00001268  00000000  00000000  0000388b  2**0
                  CONTENTS, READONLY, DEBUGGING
 10 .debug_ranges 00000078  00000000  00000000  00004af3  2**0
                  CONTENTS, READONLY, DEBUGGING

Disassembly of section .text:

00000000 <__vectors>:
       0:	22 c0       	rjmp	.+68     	; 0x46 <__ctors_end>
       2:	31 c0       	rjmp	.+98     	; 0x66 <__bad_interrupt>
       4:	30 c0       	rjmp	.+96     	; 0x66 <__bad_interrupt>
       6:	2f c0       	rjmp	.+94     	; 0x66 <__bad_interrupt>
       8:	2e c0       	rjmp	.+92     	; 0x66 <__bad_interrupt>
       a:	2d c0       	rjmp	.+90     	; 0x66 <__bad_interrupt>
       c:	8f c1       	rjmp	.+798    	; 0x32c <__vector_6>
       e:	2b c0       	rjmp	.+86     	; 0x66 <__bad_interrupt>
      10:	2a c0       	rjmp	.+84     	; 0x66 <__bad_interrupt>
      12:	29 c0       	rjmp	.+82     	; 0x66 <__bad_interrupt>
      14:	28 c0       	rjmp	.+80     	; 0x66 <__bad_interrupt>
      16:	27 c0       	rjmp	.+78     	; 0x66 <__bad_interrupt>
      18:	26 c0       	rjmp	.+76     	; 0x66 <__bad_interrupt>
      1a:	25 c0       	rjmp	.+74     	; 0x66 <__bad_interrupt>
      1c:	24 c0       	rjmp	.+72     	; 0x66 <__bad_interrupt>
      1e:	23 c0       	rjmp	.+70     	; 0x66 <__bad_interrupt>
      20:	22 c0       	rjmp	.+68     	; 0x66 <__bad_interrupt>
      22:	21 c0       	rjmp	.+66     	; 0x66 <__bad_interrupt>
      24:	20 c0       	rjmp	.+64     	; 0x66 <__bad_interrupt>
      26:	4d c0       	rjmp	.+154    	; 0xc2 <segment+0x10>
      28:	4f c0       	rjmp	.+158    	; 0xc8 <segment+0x16>
      2a:	51 c0       	rjmp	.+162    	; 0xce <segment+0x1c>
      2c:	53 c0       	rjmp	.+166    	; 0xd4 <segment+0x22>
      2e:	55 c0       	rjmp	.+170    	; 0xda <segment+0x28>
      30:	57 c0       	rjmp	.+174    	; 0xe0 <segment+0x2e>
      32:	59 c0       	rjmp	.+178    	; 0xe6 <segment+0x34>
      34:	5b c0       	rjmp	.+182    	; 0xec <segment+0x3a>
      36:	5d c0       	rjmp	.+186    	; 0xf2 <segment+0x40>
      38:	5f c0       	rjmp	.+190    	; 0xf8 <segment+0x46>
      3a:	61 c0       	rjmp	.+194    	; 0xfe <segment+0x4c>
      3c:	63 c0       	rjmp	.+198    	; 0x104 <segment+0x52>
      3e:	65 c0       	rjmp	.+202    	; 0x10a <segment+0x58>
      40:	67 c0       	rjmp	.+206    	; 0x110 <segment+0x5e>
      42:	69 c0       	rjmp	.+210    	; 0x116 <segment+0x64>
      44:	6b c0       	rjmp	.+214    	; 0x11c <segment+0x6a>

00000046 <__ctors_end>:
      46:	11 24       	eor	r1, r1
      48:	1f be       	out	0x3f, r1	; 63
      4a:	cf e5       	ldi	r28, 0x5F	; 95
      4c:	d4 e0       	ldi	r29, 0x04	; 4
      4e:	de bf       	out	0x3e, r29	; 62
      50:	cd bf       	out	0x3d, r28	; 61

00000052 <__do_clear_bss>:
      52:	20 e0       	ldi	r18, 0x00	; 0
      54:	a0 e6       	ldi	r26, 0x60	; 96
      56:	b0 e0       	ldi	r27, 0x00	; 0
      58:	01 c0       	rjmp	.+2      	; 0x5c <.do_clear_bss_start>

0000005a <.do_clear_bss_loop>:
      5a:	1d 92       	st	X+, r1

0000005c <.do_clear_bss_start>:
      5c:	ac 3c       	cpi	r26, 0xCC	; 204
      5e:	b2 07       	cpc	r27, r18
      60:	e1 f7       	brne	.-8      	; 0x5a <.do_clear_bss_loop>
      62:	aa d2       	rcall	.+1364   	; 0x5b8 <main>
      64:	dd c9       	rjmp	.-3142   	; 0xfffff420 <__eeprom_end+0xff7ef420>

00000066 <__bad_interrupt>:
      66:	cc cf       	rjmp	.-104    	; 0x0 <__vectors>

00000068 <TWI_MasterInit>:
		R4 = 10;
	}
	else {R4 = 0;}
	k = z/1000;
	_delay_ms(2000);
	k = z%1000;
      68:	8a e2       	ldi	r24, 0x2A	; 42
      6a:	80 b9       	out	0x00, r24	; 0
      6c:	81 b1       	in	r24, 0x01	; 1
      6e:	8c 7f       	andi	r24, 0xFC	; 252
      70:	81 b9       	out	0x01, r24	; 1
      72:	08 95       	ret

00000074 <TWI_Start>:
      74:	84 ea       	ldi	r24, 0xA4	; 164
      76:	86 bf       	out	0x36, r24	; 54
      78:	06 b6       	in	r0, 0x36	; 54
      7a:	07 fe       	sbrs	r0, 7
	#else
		//round up by default
		__ticks_dc = (uint32_t)(ceil(fabs(__tmp)));
	#endif

	__builtin_avr_delay_cycles(__ticks_dc);
      7c:	fd cf       	rjmp	.-6      	; 0x78 <TWI_Start+0x4>
      7e:	08 95       	ret

00000080 <init>:
      80:	87 b3       	in	r24, 0x17	; 23
      82:	8e 63       	ori	r24, 0x3E	; 62
      84:	87 bb       	out	0x17, r24	; 23
      86:	87 b3       	in	r24, 0x17	; 23
      88:	8e 73       	andi	r24, 0x3E	; 62
      8a:	87 bb       	out	0x17, r24	; 23
      8c:	88 b3       	in	r24, 0x18	; 24
	_delay_ms(2000);
	
}
      8e:	8f 6d       	ori	r24, 0xDF	; 223
      90:	88 bb       	out	0x18, r24	; 24
      92:	8f ef       	ldi	r24, 0xFF	; 255
      94:	81 bb       	out	0x11, r24	; 17
      96:	82 bb       	out	0x12, r24	; 18
      98:	2f ef       	ldi	r18, 0xFF	; 255
      9a:	83 ed       	ldi	r24, 0xD3	; 211
      9c:	90 e3       	ldi	r25, 0x30	; 48
      9e:	21 50       	subi	r18, 0x01	; 1
      a0:	80 40       	sbci	r24, 0x00	; 0
      a2:	90 40       	sbci	r25, 0x00	; 0
      a4:	e1 f7       	brne	.-8      	; 0x9e <init+0x1e>
      a6:	00 c0       	rjmp	.+0      	; 0xa8 <init+0x28>
      a8:	00 00       	nop
	DDRB &= ~(1<<0) & ~(1<<6) & ~(1<<7);
	PORTB |= (1<<0) | (1<<1) | (1<<2) | (1<<3) | (1<<4) | (1<<6) | (1<<7);
	DDRD = 0xFF;
	PORTD = 0xFF;
	_delay_ms(2000);
	PORTB &= ~(1<<1) & ~(1<<2) & ~(1<<3) & ~(1<<4) & ~(1<<5);
      aa:	88 b3       	in	r24, 0x18	; 24
      ac:	81 7c       	andi	r24, 0xC1	; 193
      ae:	88 bb       	out	0x18, r24	; 24
      b0:	08 95       	ret

000000b2 <segment>:
}

//------------------------------------------
void segment (unsigned char seg)
{
	switch (seg)
      b2:	90 e0       	ldi	r25, 0x00	; 0
      b4:	80 31       	cpi	r24, 0x10	; 16
      b6:	91 05       	cpc	r25, r1
      b8:	98 f5       	brcc	.+102    	; 0x120 <segment+0x6e>
      ba:	fc 01       	movw	r30, r24
      bc:	ed 5e       	subi	r30, 0xED	; 237
      be:	ff 4f       	sbci	r31, 0xFF	; 255
      c0:	09 94       	ijmp
	{
		case 0: PORTD = 0x3F; break;
      c2:	8f e3       	ldi	r24, 0x3F	; 63
      c4:	82 bb       	out	0x12, r24	; 18
      c6:	08 95       	ret
		case 1: PORTD = 0x06; break;
      c8:	86 e0       	ldi	r24, 0x06	; 6
      ca:	82 bb       	out	0x12, r24	; 18
      cc:	08 95       	ret
		case 2: PORTD = 0x5B; break;
      ce:	8b e5       	ldi	r24, 0x5B	; 91
      d0:	82 bb       	out	0x12, r24	; 18
      d2:	08 95       	ret
		case 3: PORTD = 0x4F; break;
      d4:	8f e4       	ldi	r24, 0x4F	; 79
      d6:	82 bb       	out	0x12, r24	; 18
      d8:	08 95       	ret
		case 4: PORTD = 0x66; break;
      da:	86 e6       	ldi	r24, 0x66	; 102
      dc:	82 bb       	out	0x12, r24	; 18
      de:	08 95       	ret
		case 5: PORTD = 0x6D; break;
      e0:	8d e6       	ldi	r24, 0x6D	; 109
      e2:	82 bb       	out	0x12, r24	; 18
      e4:	08 95       	ret
		case 6: PORTD = 0x7D; break;
      e6:	8d e7       	ldi	r24, 0x7D	; 125
      e8:	82 bb       	out	0x12, r24	; 18
      ea:	08 95       	ret
		case 7: PORTD = 0x07; break;
      ec:	87 e0       	ldi	r24, 0x07	; 7
      ee:	82 bb       	out	0x12, r24	; 18
      f0:	08 95       	ret
		case 8: PORTD = 0x7F; break;
      f2:	8f e7       	ldi	r24, 0x7F	; 127
      f4:	82 bb       	out	0x12, r24	; 18
      f6:	08 95       	ret
		case 9: PORTD = 0x6F; break;
      f8:	8f e6       	ldi	r24, 0x6F	; 111
      fa:	82 bb       	out	0x12, r24	; 18
      fc:	08 95       	ret
		case 10: PORTD = 0x40; break; // минус
      fe:	80 e4       	ldi	r24, 0x40	; 64
     100:	82 bb       	out	0x12, r24	; 18
     102:	08 95       	ret
		case 11: PORTD = 0x5E; break; // d
     104:	8e e5       	ldi	r24, 0x5E	; 94
     106:	82 bb       	out	0x12, r24	; 18
     108:	08 95       	ret
		case 12: PORTD = 0x5C; break; // o
     10a:	8c e5       	ldi	r24, 0x5C	; 92
     10c:	82 bb       	out	0x12, r24	; 18
     10e:	08 95       	ret
		case 13: PORTD = 0x7d; break; // G
     110:	8d e7       	ldi	r24, 0x7D	; 125
     112:	82 bb       	out	0x12, r24	; 18
     114:	08 95       	ret
		case 14: PORTD = 0x50; break; // r
     116:	80 e5       	ldi	r24, 0x50	; 80
     118:	82 bb       	out	0x12, r24	; 18
     11a:	08 95       	ret
		case 15: PORTD = 0x79; break; // E
     11c:	89 e7       	ldi	r24, 0x79	; 121
     11e:	82 bb       	out	0x12, r24	; 18
     120:	08 95       	ret

00000122 <timer_init>:
}
//------------------------------------------

void timer_init (void)
{
	TCCR1B |= (1<<WGM12); 
     122:	8e b5       	in	r24, 0x2e	; 46
     124:	88 60       	ori	r24, 0x08	; 8
     126:	8e bd       	out	0x2e, r24	; 46
	TIMSK |= (1<<OCIE1A);
     128:	89 b7       	in	r24, 0x39	; 57
     12a:	80 61       	ori	r24, 0x10	; 16
     12c:	89 bf       	out	0x39, r24	; 57
	OCR1AH = 0b01001110;
     12e:	8e e4       	ldi	r24, 0x4E	; 78
     130:	8b bd       	out	0x2b, r24	; 43
	OCR1AL = 0b00100000;
     132:	80 e2       	ldi	r24, 0x20	; 32
     134:	8a bd       	out	0x2a, r24	; 42
	TCCR1B |= (1<<0);
     136:	8e b5       	in	r24, 0x2e	; 46
     138:	81 60       	ori	r24, 0x01	; 1
     13a:	8e bd       	out	0x2e, r24	; 46
     13c:	08 95       	ret

0000013e <show_k>:
}

//------------------------------------------

void show_k (void)
{
     13e:	8f 92       	push	r8
     140:	9f 92       	push	r9
     142:	af 92       	push	r10
     144:	bf 92       	push	r11
     146:	cf 92       	push	r12
     148:	df 92       	push	r13
     14a:	ef 92       	push	r14
     14c:	ff 92       	push	r15
	if (k == 1111)
     14e:	c0 90 86 00 	lds	r12, 0x0086
     152:	d0 90 87 00 	lds	r13, 0x0087
     156:	e0 90 88 00 	lds	r14, 0x0088
     15a:	f0 90 89 00 	lds	r15, 0x0089
     15e:	87 e5       	ldi	r24, 0x57	; 87
     160:	c8 16       	cp	r12, r24
     162:	84 e0       	ldi	r24, 0x04	; 4
     164:	d8 06       	cpc	r13, r24
     166:	e1 04       	cpc	r14, r1
     168:	f1 04       	cpc	r15, r1
     16a:	09 f0       	breq	.+2      	; 0x16e <show_k+0x30>
     16c:	50 c0       	rjmp	.+160    	; 0x20e <show_k+0xd0>
	{
		if (n_count==0) { PORTB |= (1<<1); PORTB &= ~(1<<2) & ~(1<<3) & ~(1<<4); segment(R1);}
     16e:	80 91 9e 00 	lds	r24, 0x009E
     172:	81 11       	cpse	r24, r1
     174:	07 c0       	rjmp	.+14     	; 0x184 <show_k+0x46>
     176:	c1 9a       	sbi	0x18, 1	; 24
     178:	88 b3       	in	r24, 0x18	; 24
     17a:	83 7e       	andi	r24, 0xE3	; 227
     17c:	88 bb       	out	0x18, r24	; 24
     17e:	80 91 9c 00 	lds	r24, 0x009C
     182:	97 df       	rcall	.-210    	; 0xb2 <segment>
		if (n_count==1) { if (!(R2==0 && R3==0 && R4==0)) {PORTB |= (1<<2); PORTB &= ~(1<<1) & ~(1<<3) & ~(1<<4); segment(R2);}}
     184:	80 91 9e 00 	lds	r24, 0x009E
     188:	81 30       	cpi	r24, 0x01	; 1
     18a:	99 f4       	brne	.+38     	; 0x1b2 <show_k+0x74>
     18c:	80 91 af 00 	lds	r24, 0x00AF
     190:	81 11       	cpse	r24, r1
     192:	08 c0       	rjmp	.+16     	; 0x1a4 <show_k+0x66>
     194:	80 91 73 00 	lds	r24, 0x0073
     198:	81 11       	cpse	r24, r1
     19a:	04 c0       	rjmp	.+8      	; 0x1a4 <show_k+0x66>
     19c:	80 91 91 00 	lds	r24, 0x0091
     1a0:	88 23       	and	r24, r24
     1a2:	51 f1       	breq	.+84     	; 0x1f8 <show_k+0xba>
     1a4:	c2 9a       	sbi	0x18, 2	; 24
     1a6:	88 b3       	in	r24, 0x18	; 24
     1a8:	85 7e       	andi	r24, 0xE5	; 229
     1aa:	88 bb       	out	0x18, r24	; 24
     1ac:	80 91 af 00 	lds	r24, 0x00AF
     1b0:	80 df       	rcall	.-256    	; 0xb2 <segment>
		if (n_count==2) { if (!(R3==0 && R4==0)) {PORTB |= (1<<3); PORTB &= ~(1<<1) & ~(1<<2) & ~(1<<4); segment(R3);}}
     1b2:	80 91 9e 00 	lds	r24, 0x009E
     1b6:	82 30       	cpi	r24, 0x02	; 2
     1b8:	81 f4       	brne	.+32     	; 0x1da <show_k+0x9c>
     1ba:	80 91 73 00 	lds	r24, 0x0073
     1be:	81 11       	cpse	r24, r1
     1c0:	05 c0       	rjmp	.+10     	; 0x1cc <show_k+0x8e>
     1c2:	80 91 91 00 	lds	r24, 0x0091
     1c6:	88 23       	and	r24, r24
     1c8:	09 f4       	brne	.+2      	; 0x1cc <show_k+0x8e>
     1ca:	9c c0       	rjmp	.+312    	; 0x304 <show_k+0x1c6>
     1cc:	c3 9a       	sbi	0x18, 3	; 24
     1ce:	88 b3       	in	r24, 0x18	; 24
     1d0:	89 7e       	andi	r24, 0xE9	; 233
     1d2:	88 bb       	out	0x18, r24	; 24
     1d4:	80 91 73 00 	lds	r24, 0x0073
     1d8:	6c df       	rcall	.-296    	; 0xb2 <segment>
		if (n_count==3) { if (!(R4==0)) {PORTB |= (1<<4); PORTB &= ~(1<<1) & ~(1<<2) & ~(1<<3); segment(R4);}}
     1da:	80 91 9e 00 	lds	r24, 0x009E
     1de:	83 30       	cpi	r24, 0x03	; 3
     1e0:	59 f4       	brne	.+22     	; 0x1f8 <show_k+0xba>
     1e2:	80 91 91 00 	lds	r24, 0x0091
     1e6:	88 23       	and	r24, r24
     1e8:	79 f0       	breq	.+30     	; 0x208 <show_k+0xca>
     1ea:	c4 9a       	sbi	0x18, 4	; 24
     1ec:	88 b3       	in	r24, 0x18	; 24
     1ee:	81 7f       	andi	r24, 0xF1	; 241
     1f0:	88 bb       	out	0x18, r24	; 24
     1f2:	80 91 91 00 	lds	r24, 0x0091
     1f6:	5d df       	rcall	.-326    	; 0xb2 <segment>
		n_count++;
     1f8:	80 91 9e 00 	lds	r24, 0x009E
     1fc:	8f 5f       	subi	r24, 0xFF	; 255
     1fe:	80 93 9e 00 	sts	0x009E, r24
		if (n_count>3) {n_count = 0;}
     202:	84 30       	cpi	r24, 0x04	; 4
     204:	08 f4       	brcc	.+2      	; 0x208 <show_k+0xca>
     206:	89 c0       	rjmp	.+274    	; 0x31a <show_k+0x1dc>
     208:	10 92 9e 00 	sts	0x009E, r1
     20c:	86 c0       	rjmp	.+268    	; 0x31a <show_k+0x1dc>
	} 
	else
	{
		R4 = k/1000;
     20e:	c7 01       	movw	r24, r14
     210:	b6 01       	movw	r22, r12
     212:	28 ee       	ldi	r18, 0xE8	; 232
     214:	33 e0       	ldi	r19, 0x03	; 3
     216:	40 e0       	ldi	r20, 0x00	; 0
     218:	50 e0       	ldi	r21, 0x00	; 0
     21a:	ca d8       	rcall	.-3692   	; 0xfffff3b0 <__eeprom_end+0xff7ef3b0>
     21c:	20 93 91 00 	sts	0x0091, r18
		R3 = k%1000/100;
     220:	0f 2e       	mov	r0, r31
     222:	f4 e6       	ldi	r31, 0x64	; 100
     224:	8f 2e       	mov	r8, r31
     226:	91 2c       	mov	r9, r1
     228:	a1 2c       	mov	r10, r1
     22a:	b1 2c       	mov	r11, r1
     22c:	f0 2d       	mov	r31, r0
     22e:	a5 01       	movw	r20, r10
     230:	94 01       	movw	r18, r8
     232:	be d8       	rcall	.-3716   	; 0xfffff3b0 <__eeprom_end+0xff7ef3b0>
     234:	20 93 73 00 	sts	0x0073, r18
		R2 = k%100/10;
     238:	c7 01       	movw	r24, r14
     23a:	b6 01       	movw	r22, r12
     23c:	a5 01       	movw	r20, r10
     23e:	94 01       	movw	r18, r8
     240:	b7 d8       	rcall	.-3730   	; 0xfffff3b0 <__eeprom_end+0xff7ef3b0>
     242:	0f 2e       	mov	r0, r31
     244:	fa e0       	ldi	r31, 0x0A	; 10
     246:	8f 2e       	mov	r8, r31
     248:	91 2c       	mov	r9, r1
     24a:	a1 2c       	mov	r10, r1
     24c:	b1 2c       	mov	r11, r1
     24e:	f0 2d       	mov	r31, r0
     250:	a5 01       	movw	r20, r10
     252:	94 01       	movw	r18, r8
     254:	ad d8       	rcall	.-3750   	; 0xfffff3b0 <__eeprom_end+0xff7ef3b0>
     256:	20 93 af 00 	sts	0x00AF, r18
		R1 = k%10;
     25a:	c7 01       	movw	r24, r14
     25c:	b6 01       	movw	r22, r12
     25e:	a5 01       	movw	r20, r10
     260:	94 01       	movw	r18, r8
     262:	a6 d8       	rcall	.-3764   	; 0xfffff3b0 <__eeprom_end+0xff7ef3b0>
     264:	60 93 9c 00 	sts	0x009C, r22
		// 		R3 = k/100;
		// 		R2 = k%100/10;
		// 		R1 = k%10;

		if (n_count==0) { PORTB |= (1<<1); PORTB &= ~(1<<2) & ~(1<<3) & ~(1<<4); segment(R1);}
     268:	80 91 9e 00 	lds	r24, 0x009E
     26c:	81 11       	cpse	r24, r1
     26e:	07 c0       	rjmp	.+14     	; 0x27e <show_k+0x140>
     270:	c1 9a       	sbi	0x18, 1	; 24
     272:	88 b3       	in	r24, 0x18	; 24
     274:	83 7e       	andi	r24, 0xE3	; 227
     276:	88 bb       	out	0x18, r24	; 24
     278:	80 91 9c 00 	lds	r24, 0x009C
     27c:	1a df       	rcall	.-460    	; 0xb2 <segment>
		if (n_count==1) { if (!(R2==0 && R3==0 && R4==0)) {PORTB |= (1<<2); PORTB &= ~(1<<1) & ~(1<<3) & ~(1<<4); segment(R2);}}
     27e:	80 91 9e 00 	lds	r24, 0x009E
     282:	81 30       	cpi	r24, 0x01	; 1
     284:	99 f4       	brne	.+38     	; 0x2ac <show_k+0x16e>
     286:	80 91 af 00 	lds	r24, 0x00AF
     28a:	81 11       	cpse	r24, r1
     28c:	08 c0       	rjmp	.+16     	; 0x29e <show_k+0x160>
     28e:	80 91 73 00 	lds	r24, 0x0073
     292:	81 11       	cpse	r24, r1
     294:	04 c0       	rjmp	.+8      	; 0x29e <show_k+0x160>
     296:	80 91 91 00 	lds	r24, 0x0091
     29a:	88 23       	and	r24, r24
     29c:	49 f1       	breq	.+82     	; 0x2f0 <show_k+0x1b2>
     29e:	c2 9a       	sbi	0x18, 2	; 24
     2a0:	88 b3       	in	r24, 0x18	; 24
     2a2:	85 7e       	andi	r24, 0xE5	; 229
     2a4:	88 bb       	out	0x18, r24	; 24
     2a6:	80 91 af 00 	lds	r24, 0x00AF
     2aa:	03 df       	rcall	.-506    	; 0xb2 <segment>
		if (n_count==2) { if (!(R3==0 && R4==0)) {PORTB |= (1<<3); PORTB &= ~(1<<1) & ~(1<<2) & ~(1<<4); segment(R3);}}
     2ac:	80 91 9e 00 	lds	r24, 0x009E
     2b0:	82 30       	cpi	r24, 0x02	; 2
     2b2:	79 f4       	brne	.+30     	; 0x2d2 <show_k+0x194>
     2b4:	80 91 73 00 	lds	r24, 0x0073
     2b8:	81 11       	cpse	r24, r1
     2ba:	04 c0       	rjmp	.+8      	; 0x2c4 <show_k+0x186>
     2bc:	80 91 91 00 	lds	r24, 0x0091
     2c0:	88 23       	and	r24, r24
     2c2:	31 f1       	breq	.+76     	; 0x310 <show_k+0x1d2>
     2c4:	c3 9a       	sbi	0x18, 3	; 24
     2c6:	88 b3       	in	r24, 0x18	; 24
     2c8:	89 7e       	andi	r24, 0xE9	; 233
     2ca:	88 bb       	out	0x18, r24	; 24
     2cc:	80 91 73 00 	lds	r24, 0x0073
     2d0:	f0 de       	rcall	.-544    	; 0xb2 <segment>
		if (n_count==3) { if (!(R4==0)) {PORTB |= (1<<4); PORTB &= ~(1<<1) & ~(1<<2) & ~(1<<3); segment(R4);}}
     2d2:	80 91 9e 00 	lds	r24, 0x009E
     2d6:	83 30       	cpi	r24, 0x03	; 3
     2d8:	59 f4       	brne	.+22     	; 0x2f0 <show_k+0x1b2>
     2da:	80 91 91 00 	lds	r24, 0x0091
     2de:	88 23       	and	r24, r24
     2e0:	71 f0       	breq	.+28     	; 0x2fe <show_k+0x1c0>
     2e2:	c4 9a       	sbi	0x18, 4	; 24
     2e4:	88 b3       	in	r24, 0x18	; 24
     2e6:	81 7f       	andi	r24, 0xF1	; 241
     2e8:	88 bb       	out	0x18, r24	; 24
     2ea:	80 91 91 00 	lds	r24, 0x0091
     2ee:	e1 de       	rcall	.-574    	; 0xb2 <segment>
		n_count++;
     2f0:	80 91 9e 00 	lds	r24, 0x009E
     2f4:	8f 5f       	subi	r24, 0xFF	; 255
     2f6:	80 93 9e 00 	sts	0x009E, r24
		if (n_count>3) {n_count = 0;}
     2fa:	84 30       	cpi	r24, 0x04	; 4
     2fc:	70 f0       	brcs	.+28     	; 0x31a <show_k+0x1dc>
     2fe:	10 92 9e 00 	sts	0x009E, r1
     302:	0b c0       	rjmp	.+22     	; 0x31a <show_k+0x1dc>
	{
		if (n_count==0) { PORTB |= (1<<1); PORTB &= ~(1<<2) & ~(1<<3) & ~(1<<4); segment(R1);}
		if (n_count==1) { if (!(R2==0 && R3==0 && R4==0)) {PORTB |= (1<<2); PORTB &= ~(1<<1) & ~(1<<3) & ~(1<<4); segment(R2);}}
		if (n_count==2) { if (!(R3==0 && R4==0)) {PORTB |= (1<<3); PORTB &= ~(1<<1) & ~(1<<2) & ~(1<<4); segment(R3);}}
		if (n_count==3) { if (!(R4==0)) {PORTB |= (1<<4); PORTB &= ~(1<<1) & ~(1<<2) & ~(1<<3); segment(R4);}}
		n_count++;
     304:	80 91 9e 00 	lds	r24, 0x009E
     308:	8f 5f       	subi	r24, 0xFF	; 255
     30a:	80 93 9e 00 	sts	0x009E, r24
     30e:	05 c0       	rjmp	.+10     	; 0x31a <show_k+0x1dc>

		if (n_count==0) { PORTB |= (1<<1); PORTB &= ~(1<<2) & ~(1<<3) & ~(1<<4); segment(R1);}
		if (n_count==1) { if (!(R2==0 && R3==0 && R4==0)) {PORTB |= (1<<2); PORTB &= ~(1<<1) & ~(1<<3) & ~(1<<4); segment(R2);}}
		if (n_count==2) { if (!(R3==0 && R4==0)) {PORTB |= (1<<3); PORTB &= ~(1<<1) & ~(1<<2) & ~(1<<4); segment(R3);}}
		if (n_count==3) { if (!(R4==0)) {PORTB |= (1<<4); PORTB &= ~(1<<1) & ~(1<<2) & ~(1<<3); segment(R4);}}
		n_count++;
     310:	80 91 9e 00 	lds	r24, 0x009E
     314:	8f 5f       	subi	r24, 0xFF	; 255
     316:	80 93 9e 00 	sts	0x009E, r24
		if (n_count>3) {n_count = 0;}
	}
}
     31a:	ff 90       	pop	r15
     31c:	ef 90       	pop	r14
     31e:	df 90       	pop	r13
     320:	cf 90       	pop	r12
     322:	bf 90       	pop	r11
     324:	af 90       	pop	r10
     326:	9f 90       	pop	r9
     328:	8f 90       	pop	r8
     32a:	08 95       	ret

0000032c <__vector_6>:
//------------------------------------------


ISR (TIMER1_COMPA_vect)
{
     32c:	1f 92       	push	r1
     32e:	0f 92       	push	r0
     330:	0f b6       	in	r0, 0x3f	; 63
     332:	0f 92       	push	r0
     334:	11 24       	eor	r1, r1
     336:	2f 93       	push	r18
     338:	3f 93       	push	r19
     33a:	4f 93       	push	r20
     33c:	5f 93       	push	r21
     33e:	6f 93       	push	r22
     340:	7f 93       	push	r23
     342:	8f 93       	push	r24
     344:	9f 93       	push	r25
     346:	af 93       	push	r26
     348:	bf 93       	push	r27
     34a:	ef 93       	push	r30
     34c:	ff 93       	push	r31
	if (k == 0)
     34e:	80 91 86 00 	lds	r24, 0x0086
     352:	90 91 87 00 	lds	r25, 0x0087
     356:	a0 91 88 00 	lds	r26, 0x0088
     35a:	b0 91 89 00 	lds	r27, 0x0089
     35e:	89 2b       	or	r24, r25
     360:	8a 2b       	or	r24, r26
     362:	8b 2b       	or	r24, r27
     364:	21 f4       	brne	.+8      	; 0x36e <__vector_6+0x42>
	{ PORTB &= ~(1<<1) & ~(1<<2) & ~(1<<3) & ~(1<<4);} 
     366:	88 b3       	in	r24, 0x18	; 24
     368:	81 7e       	andi	r24, 0xE1	; 225
     36a:	88 bb       	out	0x18, r24	; 24
     36c:	01 c0       	rjmp	.+2      	; 0x370 <__vector_6+0x44>
	else { show_k();}
     36e:	e7 de       	rcall	.-562    	; 0x13e <show_k>
// 		if (butcount<5) {butcount++;}
// 		else {sel_mode++; if (sel_mode>2) {sel_mode = 1;}}
// 	}
// 	else {if (butcount>0) {butcount--;}}
		
}
     370:	ff 91       	pop	r31
     372:	ef 91       	pop	r30
     374:	bf 91       	pop	r27
     376:	af 91       	pop	r26
     378:	9f 91       	pop	r25
     37a:	8f 91       	pop	r24
     37c:	7f 91       	pop	r23
     37e:	6f 91       	pop	r22
     380:	5f 91       	pop	r21
     382:	4f 91       	pop	r20
     384:	3f 91       	pop	r19
     386:	2f 91       	pop	r18
     388:	0f 90       	pop	r0
     38a:	0f be       	out	0x3f, r0	; 63
     38c:	0f 90       	pop	r0
     38e:	1f 90       	pop	r1
     390:	18 95       	reti

00000392 <TWI_R_B>:
//------------------------------------------



unsigned char TWI_R_B (unsigned char addr_r_b)
{	
     392:	cf 93       	push	r28
     394:	c8 2f       	mov	r28, r24
     396:	2f ef       	ldi	r18, 0xFF	; 255
     398:	83 ef       	ldi	r24, 0xF3	; 243
     39a:	91 e0       	ldi	r25, 0x01	; 1
     39c:	21 50       	subi	r18, 0x01	; 1
     39e:	80 40       	sbci	r24, 0x00	; 0
     3a0:	90 40       	sbci	r25, 0x00	; 0
     3a2:	e1 f7       	brne	.-8      	; 0x39c <TWI_R_B+0xa>
     3a4:	00 c0       	rjmp	.+0      	; 0x3a6 <TWI_R_B+0x14>
     3a6:	00 00       	nop
	_delay_ms(80);
	TWI_Start();
     3a8:	65 de       	rcall	.-822    	; 0x74 <TWI_Start>
	
	TWDR = 0xEE;
     3aa:	8e ee       	ldi	r24, 0xEE	; 238
     3ac:	83 b9       	out	0x03, r24	; 3
	TWCR = (1 << TWINT) | (1 << TWEN);
     3ae:	84 e8       	ldi	r24, 0x84	; 132
     3b0:	86 bf       	out	0x36, r24	; 54
	while (!(TWCR & (1 << TWINT)));
     3b2:	06 b6       	in	r0, 0x36	; 54
     3b4:	07 fe       	sbrs	r0, 7
     3b6:	fd cf       	rjmp	.-6      	; 0x3b2 <TWI_R_B+0x20>
	
	TWDR = addr_r_b;
     3b8:	c3 b9       	out	0x03, r28	; 3
	TWCR = (1 << TWINT) | (1 << TWEN);
     3ba:	84 e8       	ldi	r24, 0x84	; 132
     3bc:	86 bf       	out	0x36, r24	; 54
	while (!(TWCR & (1 << TWINT)));
     3be:	06 b6       	in	r0, 0x36	; 54
     3c0:	07 fe       	sbrs	r0, 7
     3c2:	fd cf       	rjmp	.-6      	; 0x3be <TWI_R_B+0x2c>
	
	TWI_Start();
     3c4:	57 de       	rcall	.-850    	; 0x74 <TWI_Start>
	
	TWDR = 0xEF;
     3c6:	8f ee       	ldi	r24, 0xEF	; 239
     3c8:	83 b9       	out	0x03, r24	; 3
	TWCR = (1 << TWINT) | (1 << TWEN);
     3ca:	84 e8       	ldi	r24, 0x84	; 132
     3cc:	86 bf       	out	0x36, r24	; 54
	while (!(TWCR & (1 << TWINT)));
     3ce:	06 b6       	in	r0, 0x36	; 54
     3d0:	07 fe       	sbrs	r0, 7
     3d2:	fd cf       	rjmp	.-6      	; 0x3ce <TWI_R_B+0x3c>
	
	TWCR = (1 << TWINT) | (1 << TWEN);
     3d4:	84 e8       	ldi	r24, 0x84	; 132
     3d6:	86 bf       	out	0x36, r24	; 54
	while (!(TWCR & (1 << TWINT)));
     3d8:	06 b6       	in	r0, 0x36	; 54
     3da:	07 fe       	sbrs	r0, 7
     3dc:	fd cf       	rjmp	.-6      	; 0x3d8 <TWI_R_B+0x46>
	while (!(TWCR & (1 << TWINT)));
}

void TWI_Stop ()
{
	TWCR = (1 << TWINT) | (1 << TWSTO) | (1 << TWEN);
     3de:	84 e9       	ldi	r24, 0x94	; 148
     3e0:	86 bf       	out	0x36, r24	; 54
	
	TWCR = (1 << TWINT) | (1 << TWEN);
	while (!(TWCR & (1 << TWINT)));
	TWI_Stop();
	
	return TWDR;
     3e2:	83 b1       	in	r24, 0x03	; 3
}
     3e4:	cf 91       	pop	r28
     3e6:	08 95       	ret

000003e8 <TWI_R_W>:
//------------------------------------------

unsigned short TWI_R_W (unsigned char addr_r_w)
{
     3e8:	cf 93       	push	r28
     3ea:	c8 2f       	mov	r28, r24
     3ec:	2f ef       	ldi	r18, 0xFF	; 255
     3ee:	83 ef       	ldi	r24, 0xF3	; 243
     3f0:	91 e0       	ldi	r25, 0x01	; 1
     3f2:	21 50       	subi	r18, 0x01	; 1
     3f4:	80 40       	sbci	r24, 0x00	; 0
     3f6:	90 40       	sbci	r25, 0x00	; 0
     3f8:	e1 f7       	brne	.-8      	; 0x3f2 <TWI_R_W+0xa>
     3fa:	00 c0       	rjmp	.+0      	; 0x3fc <TWI_R_W+0x14>
     3fc:	00 00       	nop
	unsigned short n;
	_delay_ms(80);
	TWI_Start();
     3fe:	3a de       	rcall	.-908    	; 0x74 <TWI_Start>
	
	TWDR = 0xEE;
     400:	8e ee       	ldi	r24, 0xEE	; 238
     402:	83 b9       	out	0x03, r24	; 3
	TWCR = (1 << TWINT) | (1 << TWEN);
     404:	84 e8       	ldi	r24, 0x84	; 132
     406:	86 bf       	out	0x36, r24	; 54
	while (!(TWCR & (1 << TWINT)));
     408:	06 b6       	in	r0, 0x36	; 54
     40a:	07 fe       	sbrs	r0, 7
     40c:	fd cf       	rjmp	.-6      	; 0x408 <TWI_R_W+0x20>
	
	TWDR = addr_r_w;
     40e:	c3 b9       	out	0x03, r28	; 3
	TWCR = (1 << TWINT) | (1 << TWEN);
     410:	84 e8       	ldi	r24, 0x84	; 132
     412:	86 bf       	out	0x36, r24	; 54
	while (!(TWCR & (1 << TWINT)));
     414:	06 b6       	in	r0, 0x36	; 54
     416:	07 fe       	sbrs	r0, 7
     418:	fd cf       	rjmp	.-6      	; 0x414 <TWI_R_W+0x2c>
	
	TWI_Start();
     41a:	2c de       	rcall	.-936    	; 0x74 <TWI_Start>
	
	TWDR = 0xEF;
     41c:	8f ee       	ldi	r24, 0xEF	; 239
     41e:	83 b9       	out	0x03, r24	; 3
	TWCR = (1 << TWINT) | (1 << TWEN);
     420:	84 e8       	ldi	r24, 0x84	; 132
     422:	86 bf       	out	0x36, r24	; 54
	while (!(TWCR & (1 << TWINT)));
     424:	06 b6       	in	r0, 0x36	; 54
     426:	07 fe       	sbrs	r0, 7
     428:	fd cf       	rjmp	.-6      	; 0x424 <TWI_R_W+0x3c>
	
	TWCR = (1<<TWEA) | (1 << TWINT) | (1 << TWEN);
     42a:	84 ec       	ldi	r24, 0xC4	; 196
     42c:	86 bf       	out	0x36, r24	; 54
	while (!(TWCR & (1 << TWINT)));
     42e:	06 b6       	in	r0, 0x36	; 54
     430:	07 fe       	sbrs	r0, 7
     432:	fd cf       	rjmp	.-6      	; 0x42e <TWI_R_W+0x46>
	MSB = TWDR;
     434:	83 b1       	in	r24, 0x03	; 3
     436:	80 93 9d 00 	sts	0x009D, r24
		
	TWCR = (1 << TWINT) | (1 << TWEN);
     43a:	84 e8       	ldi	r24, 0x84	; 132
     43c:	86 bf       	out	0x36, r24	; 54
	while (!(TWCR & (1 << TWINT)));
     43e:	06 b6       	in	r0, 0x36	; 54
     440:	07 fe       	sbrs	r0, 7
     442:	fd cf       	rjmp	.-6      	; 0x43e <TWI_R_W+0x56>
	LSB = TWDR;
     444:	83 b1       	in	r24, 0x03	; 3
     446:	80 93 90 00 	sts	0x0090, r24
	while (!(TWCR & (1 << TWINT)));
}

void TWI_Stop ()
{
	TWCR = (1 << TWINT) | (1 << TWSTO) | (1 << TWEN);
     44a:	84 e9       	ldi	r24, 0x94	; 148
     44c:	86 bf       	out	0x36, r24	; 54
	while (!(TWCR & (1 << TWINT)));
	LSB = TWDR;

	TWI_Stop();
	
	return n = (MSB<<8) + LSB; 
     44e:	80 91 9d 00 	lds	r24, 0x009D
     452:	90 e0       	ldi	r25, 0x00	; 0
     454:	98 2f       	mov	r25, r24
     456:	88 27       	eor	r24, r24
     458:	20 91 90 00 	lds	r18, 0x0090
}
     45c:	82 0f       	add	r24, r18
     45e:	91 1d       	adc	r25, r1
     460:	cf 91       	pop	r28
     462:	08 95       	ret

00000464 <TWI_W>:
//------------------------------------------


void TWI_W (unsigned char addr_w, unsigned char data_w)
{
     464:	cf 93       	push	r28
     466:	df 93       	push	r29
     468:	d8 2f       	mov	r29, r24
     46a:	c6 2f       	mov	r28, r22
     46c:	2f ef       	ldi	r18, 0xFF	; 255
     46e:	83 ef       	ldi	r24, 0xF3	; 243
     470:	91 e0       	ldi	r25, 0x01	; 1
     472:	21 50       	subi	r18, 0x01	; 1
     474:	80 40       	sbci	r24, 0x00	; 0
     476:	90 40       	sbci	r25, 0x00	; 0
     478:	e1 f7       	brne	.-8      	; 0x472 <TWI_W+0xe>
     47a:	00 c0       	rjmp	.+0      	; 0x47c <TWI_W+0x18>
     47c:	00 00       	nop
	_delay_ms(80);
	TWI_Start();
     47e:	fa dd       	rcall	.-1036   	; 0x74 <TWI_Start>
	
	TWDR = 0xEE;
     480:	8e ee       	ldi	r24, 0xEE	; 238
     482:	83 b9       	out	0x03, r24	; 3
	TWCR = (1 << TWINT) | (1 << TWEN);
     484:	84 e8       	ldi	r24, 0x84	; 132
     486:	86 bf       	out	0x36, r24	; 54
	while (!(TWCR & (1 << TWINT)));
     488:	06 b6       	in	r0, 0x36	; 54
     48a:	07 fe       	sbrs	r0, 7
     48c:	fd cf       	rjmp	.-6      	; 0x488 <TWI_W+0x24>
	
	TWDR = addr_w;
     48e:	d3 b9       	out	0x03, r29	; 3
	TWCR = (1 << TWINT) | (1 << TWEN);
     490:	84 e8       	ldi	r24, 0x84	; 132
     492:	86 bf       	out	0x36, r24	; 54
	while (!(TWCR & (1 << TWINT)));
     494:	06 b6       	in	r0, 0x36	; 54
     496:	07 fe       	sbrs	r0, 7
     498:	fd cf       	rjmp	.-6      	; 0x494 <TWI_W+0x30>

	TWDR = data_w;
     49a:	c3 b9       	out	0x03, r28	; 3
	TWCR = (1 << TWINT) | (1 << TWEN);
     49c:	84 e8       	ldi	r24, 0x84	; 132
     49e:	86 bf       	out	0x36, r24	; 54
	while (!(TWCR & (1 << TWINT)));
     4a0:	06 b6       	in	r0, 0x36	; 54
     4a2:	07 fe       	sbrs	r0, 7
     4a4:	fd cf       	rjmp	.-6      	; 0x4a0 <TWI_W+0x3c>
	while (!(TWCR & (1 << TWINT)));
}

void TWI_Stop ()
{
	TWCR = (1 << TWINT) | (1 << TWSTO) | (1 << TWEN);
     4a6:	84 e9       	ldi	r24, 0x94	; 148
     4a8:	86 bf       	out	0x36, r24	; 54
	TWDR = data_w;
	TWCR = (1 << TWINT) | (1 << TWEN);
	while (!(TWCR & (1 << TWINT)));
	
	TWI_Stop();
}
     4aa:	df 91       	pop	r29
     4ac:	cf 91       	pop	r28
     4ae:	08 95       	ret

000004b0 <r_cal_data>:
//------------------------------------------

void r_cal_data (void)
{
unsigned short check_twi;
	AC1 = TWI_R_W(0xAA);
     4b0:	8a ea       	ldi	r24, 0xAA	; 170
     4b2:	9a df       	rcall	.-204    	; 0x3e8 <TWI_R_W>
     4b4:	90 93 72 00 	sts	0x0072, r25
     4b8:	80 93 71 00 	sts	0x0071, r24
	AC2 = TWI_R_W(0xAC);
     4bc:	8c ea       	ldi	r24, 0xAC	; 172
     4be:	94 df       	rcall	.-216    	; 0x3e8 <TWI_R_W>
     4c0:	90 93 a6 00 	sts	0x00A6, r25
     4c4:	80 93 a5 00 	sts	0x00A5, r24
	AC3 = TWI_R_W(0xAE);
     4c8:	8e ea       	ldi	r24, 0xAE	; 174
     4ca:	8e df       	rcall	.-228    	; 0x3e8 <TWI_R_W>
     4cc:	90 93 a8 00 	sts	0x00A8, r25
     4d0:	80 93 a7 00 	sts	0x00A7, r24
	AC4 = TWI_R_W(0xB0);
     4d4:	80 eb       	ldi	r24, 0xB0	; 176
     4d6:	88 df       	rcall	.-240    	; 0x3e8 <TWI_R_W>
     4d8:	90 93 97 00 	sts	0x0097, r25
     4dc:	80 93 96 00 	sts	0x0096, r24
	AC5 = TWI_R_W(0xB2);
     4e0:	82 eb       	ldi	r24, 0xB2	; 178
     4e2:	82 df       	rcall	.-252    	; 0x3e8 <TWI_R_W>
     4e4:	90 93 8b 00 	sts	0x008B, r25
     4e8:	80 93 8a 00 	sts	0x008A, r24
	AC6 = TWI_R_W(0xB4);
     4ec:	84 eb       	ldi	r24, 0xB4	; 180
     4ee:	7c df       	rcall	.-264    	; 0x3e8 <TWI_R_W>
     4f0:	90 93 79 00 	sts	0x0079, r25
     4f4:	80 93 78 00 	sts	0x0078, r24
	B1 = TWI_R_W(0xB6);
     4f8:	86 eb       	ldi	r24, 0xB6	; 182
     4fa:	76 df       	rcall	.-276    	; 0x3e8 <TWI_R_W>
     4fc:	90 93 c1 00 	sts	0x00C1, r25
     500:	80 93 c0 00 	sts	0x00C0, r24
	B2 = TWI_R_W(0xB8);
     504:	88 eb       	ldi	r24, 0xB8	; 184
     506:	70 df       	rcall	.-288    	; 0x3e8 <TWI_R_W>
     508:	90 93 aa 00 	sts	0x00AA, r25
     50c:	80 93 a9 00 	sts	0x00A9, r24
	MB = TWI_R_W(0xBA);
     510:	8a eb       	ldi	r24, 0xBA	; 186
     512:	6a df       	rcall	.-300    	; 0x3e8 <TWI_R_W>
     514:	90 93 a0 00 	sts	0x00A0, r25
     518:	80 93 9f 00 	sts	0x009F, r24
	MC = TWI_R_W(0xBC);
     51c:	8c eb       	ldi	r24, 0xBC	; 188
     51e:	64 df       	rcall	.-312    	; 0x3e8 <TWI_R_W>
     520:	90 93 c7 00 	sts	0x00C7, r25
     524:	80 93 c6 00 	sts	0x00C6, r24
	MD = TWI_R_W(0xBE);
     528:	8e eb       	ldi	r24, 0xBE	; 190
     52a:	5e df       	rcall	.-324    	; 0x3e8 <TWI_R_W>
     52c:	90 93 70 00 	sts	0x0070, r25
     530:	80 93 6f 00 	sts	0x006F, r24

	check_twi = TWI_R_B(0xD0);
     534:	80 ed       	ldi	r24, 0xD0	; 208
     536:	2d df       	rcall	.-422    	; 0x392 <TWI_R_B>
	if (check_twi == 85) { R4 = 13; R3 = 12; R2 = 12; R1 = 11; k = 1111;}
     538:	85 35       	cpi	r24, 0x55	; 85
     53a:	c1 f4       	brne	.+48     	; 0x56c <r_cal_data+0xbc>
     53c:	8d e0       	ldi	r24, 0x0D	; 13
     53e:	80 93 91 00 	sts	0x0091, r24
     542:	8c e0       	ldi	r24, 0x0C	; 12
     544:	80 93 73 00 	sts	0x0073, r24
     548:	80 93 af 00 	sts	0x00AF, r24
     54c:	8b e0       	ldi	r24, 0x0B	; 11
     54e:	80 93 9c 00 	sts	0x009C, r24
     552:	87 e5       	ldi	r24, 0x57	; 87
     554:	94 e0       	ldi	r25, 0x04	; 4
     556:	a0 e0       	ldi	r26, 0x00	; 0
     558:	b0 e0       	ldi	r27, 0x00	; 0
     55a:	80 93 86 00 	sts	0x0086, r24
     55e:	90 93 87 00 	sts	0x0087, r25
     562:	a0 93 88 00 	sts	0x0088, r26
     566:	b0 93 89 00 	sts	0x0089, r27
     56a:	14 c0       	rjmp	.+40     	; 0x594 <r_cal_data+0xe4>
	else { R3 = 15; R2 = 14; R1 = 14; k = 1111;} 
     56c:	8f e0       	ldi	r24, 0x0F	; 15
     56e:	80 93 73 00 	sts	0x0073, r24
     572:	8e e0       	ldi	r24, 0x0E	; 14
     574:	80 93 af 00 	sts	0x00AF, r24
     578:	80 93 9c 00 	sts	0x009C, r24
     57c:	87 e5       	ldi	r24, 0x57	; 87
     57e:	94 e0       	ldi	r25, 0x04	; 4
     580:	a0 e0       	ldi	r26, 0x00	; 0
     582:	b0 e0       	ldi	r27, 0x00	; 0
     584:	80 93 86 00 	sts	0x0086, r24
     588:	90 93 87 00 	sts	0x0087, r25
     58c:	a0 93 88 00 	sts	0x0088, r26
     590:	b0 93 89 00 	sts	0x0089, r27
     594:	2f ef       	ldi	r18, 0xFF	; 255
     596:	89 e6       	ldi	r24, 0x69	; 105
     598:	98 e1       	ldi	r25, 0x18	; 24
     59a:	21 50       	subi	r18, 0x01	; 1
     59c:	80 40       	sbci	r24, 0x00	; 0
     59e:	90 40       	sbci	r25, 0x00	; 0
     5a0:	e1 f7       	brne	.-8      	; 0x59a <r_cal_data+0xea>
     5a2:	00 c0       	rjmp	.+0      	; 0x5a4 <r_cal_data+0xf4>
     5a4:	00 00       	nop
	_delay_ms(1000);
		
	k = 0;
     5a6:	10 92 86 00 	sts	0x0086, r1
     5aa:	10 92 87 00 	sts	0x0087, r1
     5ae:	10 92 88 00 	sts	0x0088, r1
     5b2:	10 92 89 00 	sts	0x0089, r1
     5b6:	08 95       	ret

000005b8 <main>:


int main(void)
{

	init();
     5b8:	63 dd       	rcall	.-1338   	; 0x80 <init>
	timer_init();
     5ba:	b3 dd       	rcall	.-1178   	; 0x122 <timer_init>
	sei();
     5bc:	78 94       	sei
	
	TWI_MasterInit();
     5be:	54 dd       	rcall	.-1368   	; 0x68 <TWI_MasterInit>
     5c0:	2f ef       	ldi	r18, 0xFF	; 255
     5c2:	89 e6       	ldi	r24, 0x69	; 105
     5c4:	98 e1       	ldi	r25, 0x18	; 24
     5c6:	21 50       	subi	r18, 0x01	; 1
     5c8:	80 40       	sbci	r24, 0x00	; 0
     5ca:	90 40       	sbci	r25, 0x00	; 0
     5cc:	e1 f7       	brne	.-8      	; 0x5c6 <main+0xe>
     5ce:	00 c0       	rjmp	.+0      	; 0x5d0 <main+0x18>
     5d0:	00 00       	nop
	_delay_ms(1000);
	r_cal_data();
     5d2:	6e df       	rcall	.-292    	; 0x4b0 <r_cal_data>
			{
				
				contr_altit_1 = T;
				k = T;
				_delay_ms(1000);
				perm_butt = 1;
     5d4:	33 24       	eor	r3, r3
     5d6:	33 94       	inc	r3
			else
			{
				contr_altit_2 = T;
				k = T;
				_delay_ms(2000);
				perm_butt = 2;
     5d8:	68 94       	set
     5da:	22 24       	eor	r2, r2
     5dc:	21 f8       	bld	r2, 1
	
	
	
	while(1)
    {
				TWI_W(0xF4, 0x2E);
     5de:	6e e2       	ldi	r22, 0x2E	; 46
     5e0:	84 ef       	ldi	r24, 0xF4	; 244
     5e2:	40 df       	rcall	.-384    	; 0x464 <TWI_W>
     5e4:	a7 e2       	ldi	r26, 0x27	; 39
     5e6:	b3 e2       	ldi	r27, 0x23	; 35
     5e8:	11 97       	sbiw	r26, 0x01	; 1
     5ea:	f1 f7       	brne	.-4      	; 0x5e8 <main+0x30>
     5ec:	00 c0       	rjmp	.+0      	; 0x5ee <main+0x36>
     5ee:	00 00       	nop
				_delay_ms(4.5);
				UT = TWI_R_W(0xF6);
     5f0:	86 ef       	ldi	r24, 0xF6	; 246
     5f2:	fa de       	rcall	.-524    	; 0x3e8 <TWI_R_W>
     5f4:	a0 e0       	ldi	r26, 0x00	; 0
     5f6:	b0 e0       	ldi	r27, 0x00	; 0
     5f8:	80 93 7e 00 	sts	0x007E, r24
     5fc:	90 93 7f 00 	sts	0x007F, r25
     600:	a0 93 80 00 	sts	0x0080, r26
     604:	b0 93 81 00 	sts	0x0081, r27

				TWI_W(0xF4, 0x34);
     608:	64 e3       	ldi	r22, 0x34	; 52
     60a:	84 ef       	ldi	r24, 0xF4	; 244
     60c:	2b df       	rcall	.-426    	; 0x464 <TWI_W>
     60e:	87 e2       	ldi	r24, 0x27	; 39
     610:	93 e2       	ldi	r25, 0x23	; 35
     612:	01 97       	sbiw	r24, 0x01	; 1
     614:	f1 f7       	brne	.-4      	; 0x612 <main+0x5a>
     616:	00 c0       	rjmp	.+0      	; 0x618 <main+0x60>
     618:	00 00       	nop
				_delay_ms(4.5);
				UP = TWI_R_W(0xF6);
     61a:	86 ef       	ldi	r24, 0xF6	; 246
     61c:	e5 de       	rcall	.-566    	; 0x3e8 <TWI_R_W>
     61e:	a0 e0       	ldi	r26, 0x00	; 0
     620:	b0 e0       	ldi	r27, 0x00	; 0
     622:	80 93 c2 00 	sts	0x00C2, r24
     626:	90 93 c3 00 	sts	0x00C3, r25
     62a:	a0 93 c4 00 	sts	0x00C4, r26
     62e:	b0 93 c5 00 	sts	0x00C5, r27
				X1 = (UT-AC6)*AC5/32768;
     632:	80 91 78 00 	lds	r24, 0x0078
     636:	90 91 79 00 	lds	r25, 0x0079
     63a:	40 91 7e 00 	lds	r20, 0x007E
     63e:	50 91 7f 00 	lds	r21, 0x007F
     642:	60 91 80 00 	lds	r22, 0x0080
     646:	70 91 81 00 	lds	r23, 0x0081
     64a:	9a 01       	movw	r18, r20
     64c:	ab 01       	movw	r20, r22
     64e:	28 1b       	sub	r18, r24
     650:	39 0b       	sbc	r19, r25
     652:	41 09       	sbc	r20, r1
     654:	51 09       	sbc	r21, r1
     656:	a0 91 8a 00 	lds	r26, 0x008A
     65a:	b0 91 8b 00 	lds	r27, 0x008B
     65e:	c4 d6       	rcall	.+3464   	; 0x13e8 <__muluhisi3>
     660:	6b 01       	movw	r12, r22
     662:	7c 01       	movw	r14, r24
     664:	99 23       	and	r25, r25
     666:	34 f4       	brge	.+12     	; 0x674 <main+0xbc>
     668:	af ef       	ldi	r26, 0xFF	; 255
     66a:	ca 0e       	add	r12, r26
     66c:	af e7       	ldi	r26, 0x7F	; 127
     66e:	da 1e       	adc	r13, r26
     670:	e1 1c       	adc	r14, r1
     672:	f1 1c       	adc	r15, r1
     674:	0b 2e       	mov	r0, r27
     676:	bf e0       	ldi	r27, 0x0F	; 15
     678:	f5 94       	asr	r15
     67a:	e7 94       	ror	r14
     67c:	d7 94       	ror	r13
     67e:	c7 94       	ror	r12
     680:	ba 95       	dec	r27
     682:	d1 f7       	brne	.-12     	; 0x678 <main+0xc0>
     684:	b0 2d       	mov	r27, r0
     686:	c0 92 a1 00 	sts	0x00A1, r12
     68a:	d0 92 a2 00 	sts	0x00A2, r13
     68e:	e0 92 a3 00 	sts	0x00A3, r14
     692:	f0 92 a4 00 	sts	0x00A4, r15
				X2 = (long)MC*2048/(X1+MD);
     696:	60 91 c6 00 	lds	r22, 0x00C6
     69a:	70 91 c7 00 	lds	r23, 0x00C7
     69e:	cb 01       	movw	r24, r22
     6a0:	aa 27       	eor	r26, r26
     6a2:	97 fd       	sbrc	r25, 7
     6a4:	a0 95       	com	r26
     6a6:	ba 2f       	mov	r27, r26
     6a8:	bc 01       	movw	r22, r24
     6aa:	cd 01       	movw	r24, r26
     6ac:	05 2e       	mov	r0, r21
     6ae:	5b e0       	ldi	r21, 0x0B	; 11
     6b0:	66 0f       	add	r22, r22
     6b2:	77 1f       	adc	r23, r23
     6b4:	88 1f       	adc	r24, r24
     6b6:	99 1f       	adc	r25, r25
     6b8:	5a 95       	dec	r21
     6ba:	d1 f7       	brne	.-12     	; 0x6b0 <main+0xf8>
     6bc:	50 2d       	mov	r21, r0
     6be:	20 91 6f 00 	lds	r18, 0x006F
     6c2:	30 91 70 00 	lds	r19, 0x0070
     6c6:	89 01       	movw	r16, r18
     6c8:	22 27       	eor	r18, r18
     6ca:	17 fd       	sbrc	r17, 7
     6cc:	20 95       	com	r18
     6ce:	32 2f       	mov	r19, r18
     6d0:	a9 01       	movw	r20, r18
     6d2:	98 01       	movw	r18, r16
     6d4:	2c 0d       	add	r18, r12
     6d6:	3d 1d       	adc	r19, r13
     6d8:	4e 1d       	adc	r20, r14
     6da:	5f 1d       	adc	r21, r15
     6dc:	69 d6       	rcall	.+3282   	; 0x13b0 <__divmodsi4>
     6de:	20 93 82 00 	sts	0x0082, r18
     6e2:	30 93 83 00 	sts	0x0083, r19
     6e6:	40 93 84 00 	sts	0x0084, r20
     6ea:	50 93 85 00 	sts	0x0085, r21
				B5 = X1+X2;
     6ee:	c2 0e       	add	r12, r18
     6f0:	d3 1e       	adc	r13, r19
     6f2:	e4 1e       	adc	r14, r20
     6f4:	f5 1e       	adc	r15, r21
     6f6:	c0 92 92 00 	sts	0x0092, r12
     6fa:	d0 92 93 00 	sts	0x0093, r13
     6fe:	e0 92 94 00 	sts	0x0094, r14
     702:	f0 92 95 00 	sts	0x0095, r15
				T = (B5+8)/16;
     706:	b8 e0       	ldi	r27, 0x08	; 8
     708:	cb 0e       	add	r12, r27
     70a:	d1 1c       	adc	r13, r1
     70c:	e1 1c       	adc	r14, r1
     70e:	f1 1c       	adc	r15, r1
     710:	d7 01       	movw	r26, r14
     712:	c6 01       	movw	r24, r12
     714:	1a f4       	brpl	.+6      	; 0x71c <main+0x164>
     716:	0f 96       	adiw	r24, 0x0f	; 15
     718:	a1 1d       	adc	r26, r1
     71a:	b1 1d       	adc	r27, r1
     71c:	68 94       	set
     71e:	13 f8       	bld	r1, 3
     720:	b5 95       	asr	r27
     722:	a7 95       	ror	r26
     724:	97 95       	ror	r25
     726:	87 95       	ror	r24
     728:	16 94       	lsr	r1
     72a:	d1 f7       	brne	.-12     	; 0x720 <main+0x168>
     72c:	80 93 8c 00 	sts	0x008C, r24
     730:	90 93 8d 00 	sts	0x008D, r25
     734:	a0 93 8e 00 	sts	0x008E, r26
     738:	b0 93 8f 00 	sts	0x008F, r27
		if (T>250)
     73c:	8b 3f       	cpi	r24, 0xFB	; 251
     73e:	91 05       	cpc	r25, r1
     740:	a1 05       	cpc	r26, r1
     742:	b1 05       	cpc	r27, r1
     744:	0c f4       	brge	.+2      	; 0x748 <main+0x190>
     746:	c8 c0       	rjmp	.+400    	; 0x8d8 <main+0x320>
		{
			PORTB |= (1<<5);
     748:	c5 9a       	sbi	0x18, 5	; 24
     74a:	2f ef       	ldi	r18, 0xFF	; 255
     74c:	80 e7       	ldi	r24, 0x70	; 112
     74e:	92 e0       	ldi	r25, 0x02	; 2
     750:	21 50       	subi	r18, 0x01	; 1
     752:	80 40       	sbci	r24, 0x00	; 0
     754:	90 40       	sbci	r25, 0x00	; 0
     756:	e1 f7       	brne	.-8      	; 0x750 <main+0x198>
     758:	00 c0       	rjmp	.+0      	; 0x75a <main+0x1a2>
     75a:	00 00       	nop
			_delay_ms(100);
			PORTB &= ~(1<<5);
     75c:	c5 98       	cbi	0x18, 5	; 24
     75e:	af ef       	ldi	r26, 0xFF	; 255
     760:	b0 e7       	ldi	r27, 0x70	; 112
     762:	22 e0       	ldi	r18, 0x02	; 2
     764:	a1 50       	subi	r26, 0x01	; 1
     766:	b0 40       	sbci	r27, 0x00	; 0
     768:	20 40       	sbci	r18, 0x00	; 0
     76a:	e1 f7       	brne	.-8      	; 0x764 <main+0x1ac>
     76c:	00 c0       	rjmp	.+0      	; 0x76e <main+0x1b6>
     76e:	00 00       	nop
			_delay_ms(100);
			PORTB |= (1<<5);
     770:	c5 9a       	sbi	0x18, 5	; 24
     772:	8f ef       	ldi	r24, 0xFF	; 255
     774:	90 e7       	ldi	r25, 0x70	; 112
     776:	a2 e0       	ldi	r26, 0x02	; 2
     778:	81 50       	subi	r24, 0x01	; 1
     77a:	90 40       	sbci	r25, 0x00	; 0
     77c:	a0 40       	sbci	r26, 0x00	; 0
     77e:	e1 f7       	brne	.-8      	; 0x778 <main+0x1c0>
     780:	00 c0       	rjmp	.+0      	; 0x782 <main+0x1ca>
     782:	00 00       	nop
			_delay_ms(100);
			PORTB &= ~(1<<5);
     784:	c5 98       	cbi	0x18, 5	; 24
     786:	bf ef       	ldi	r27, 0xFF	; 255
     788:	20 e7       	ldi	r18, 0x70	; 112
     78a:	82 e0       	ldi	r24, 0x02	; 2
     78c:	b1 50       	subi	r27, 0x01	; 1
     78e:	20 40       	sbci	r18, 0x00	; 0
     790:	80 40       	sbci	r24, 0x00	; 0
     792:	e1 f7       	brne	.-8      	; 0x78c <main+0x1d4>
     794:	00 c0       	rjmp	.+0      	; 0x796 <main+0x1de>
     796:	00 00       	nop
			_delay_ms(100);

			PORTB |= (1<<5);
     798:	c5 9a       	sbi	0x18, 5	; 24
     79a:	9f ef       	ldi	r25, 0xFF	; 255
     79c:	a0 e7       	ldi	r26, 0x70	; 112
     79e:	b2 e0       	ldi	r27, 0x02	; 2
     7a0:	91 50       	subi	r25, 0x01	; 1
     7a2:	a0 40       	sbci	r26, 0x00	; 0
     7a4:	b0 40       	sbci	r27, 0x00	; 0
     7a6:	e1 f7       	brne	.-8      	; 0x7a0 <main+0x1e8>
     7a8:	00 c0       	rjmp	.+0      	; 0x7aa <main+0x1f2>
     7aa:	00 00       	nop
			_delay_ms(100);
			PORTB &= ~(1<<5);
     7ac:	c5 98       	cbi	0x18, 5	; 24
     7ae:	2f ef       	ldi	r18, 0xFF	; 255
     7b0:	80 e7       	ldi	r24, 0x70	; 112
     7b2:	92 e0       	ldi	r25, 0x02	; 2
     7b4:	21 50       	subi	r18, 0x01	; 1
     7b6:	80 40       	sbci	r24, 0x00	; 0
     7b8:	90 40       	sbci	r25, 0x00	; 0
     7ba:	e1 f7       	brne	.-8      	; 0x7b4 <main+0x1fc>
     7bc:	00 c0       	rjmp	.+0      	; 0x7be <main+0x206>
     7be:	00 00       	nop
			_delay_ms(100);

			PORTB |= (1<<5);
     7c0:	c5 9a       	sbi	0x18, 5	; 24
     7c2:	af ef       	ldi	r26, 0xFF	; 255
     7c4:	b0 e7       	ldi	r27, 0x70	; 112
     7c6:	22 e0       	ldi	r18, 0x02	; 2
     7c8:	a1 50       	subi	r26, 0x01	; 1
     7ca:	b0 40       	sbci	r27, 0x00	; 0
     7cc:	20 40       	sbci	r18, 0x00	; 0
     7ce:	e1 f7       	brne	.-8      	; 0x7c8 <main+0x210>
     7d0:	00 c0       	rjmp	.+0      	; 0x7d2 <main+0x21a>
     7d2:	00 00       	nop
			_delay_ms(100);
			PORTB &= ~(1<<5);
     7d4:	c5 98       	cbi	0x18, 5	; 24
     7d6:	8f ef       	ldi	r24, 0xFF	; 255
     7d8:	90 e7       	ldi	r25, 0x70	; 112
     7da:	a2 e0       	ldi	r26, 0x02	; 2
     7dc:	81 50       	subi	r24, 0x01	; 1
     7de:	90 40       	sbci	r25, 0x00	; 0
     7e0:	a0 40       	sbci	r26, 0x00	; 0
     7e2:	e1 f7       	brne	.-8      	; 0x7dc <main+0x224>
     7e4:	00 c0       	rjmp	.+0      	; 0x7e6 <main+0x22e>
     7e6:	00 00       	nop
			_delay_ms(100);

			PORTB |= (1<<5);
     7e8:	c5 9a       	sbi	0x18, 5	; 24
     7ea:	bf ef       	ldi	r27, 0xFF	; 255
     7ec:	20 e7       	ldi	r18, 0x70	; 112
     7ee:	82 e0       	ldi	r24, 0x02	; 2
     7f0:	b1 50       	subi	r27, 0x01	; 1
     7f2:	20 40       	sbci	r18, 0x00	; 0
     7f4:	80 40       	sbci	r24, 0x00	; 0
     7f6:	e1 f7       	brne	.-8      	; 0x7f0 <main+0x238>
     7f8:	00 c0       	rjmp	.+0      	; 0x7fa <main+0x242>
     7fa:	00 00       	nop
			_delay_ms(100);
			PORTB &= ~(1<<5);
     7fc:	c5 98       	cbi	0x18, 5	; 24
     7fe:	9f ef       	ldi	r25, 0xFF	; 255
     800:	a0 e7       	ldi	r26, 0x70	; 112
     802:	b2 e0       	ldi	r27, 0x02	; 2
     804:	91 50       	subi	r25, 0x01	; 1
     806:	a0 40       	sbci	r26, 0x00	; 0
     808:	b0 40       	sbci	r27, 0x00	; 0
     80a:	e1 f7       	brne	.-8      	; 0x804 <main+0x24c>
     80c:	00 c0       	rjmp	.+0      	; 0x80e <main+0x256>
     80e:	00 00       	nop
			_delay_ms(100);

			PORTB |= (1<<5);
     810:	c5 9a       	sbi	0x18, 5	; 24
     812:	2f ef       	ldi	r18, 0xFF	; 255
     814:	80 e7       	ldi	r24, 0x70	; 112
     816:	92 e0       	ldi	r25, 0x02	; 2
     818:	21 50       	subi	r18, 0x01	; 1
     81a:	80 40       	sbci	r24, 0x00	; 0
     81c:	90 40       	sbci	r25, 0x00	; 0
     81e:	e1 f7       	brne	.-8      	; 0x818 <main+0x260>
     820:	00 c0       	rjmp	.+0      	; 0x822 <main+0x26a>
     822:	00 00       	nop
			_delay_ms(100);
			PORTB &= ~(1<<5);
     824:	c5 98       	cbi	0x18, 5	; 24
     826:	af ef       	ldi	r26, 0xFF	; 255
     828:	b0 e7       	ldi	r27, 0x70	; 112
     82a:	22 e0       	ldi	r18, 0x02	; 2
     82c:	a1 50       	subi	r26, 0x01	; 1
     82e:	b0 40       	sbci	r27, 0x00	; 0
     830:	20 40       	sbci	r18, 0x00	; 0
     832:	e1 f7       	brne	.-8      	; 0x82c <main+0x274>
     834:	00 c0       	rjmp	.+0      	; 0x836 <main+0x27e>
     836:	00 00       	nop
			_delay_ms(100);

			PORTB |= (1<<5);
     838:	c5 9a       	sbi	0x18, 5	; 24
     83a:	8f ef       	ldi	r24, 0xFF	; 255
     83c:	90 e7       	ldi	r25, 0x70	; 112
     83e:	a2 e0       	ldi	r26, 0x02	; 2
     840:	81 50       	subi	r24, 0x01	; 1
     842:	90 40       	sbci	r25, 0x00	; 0
     844:	a0 40       	sbci	r26, 0x00	; 0
     846:	e1 f7       	brne	.-8      	; 0x840 <main+0x288>
     848:	00 c0       	rjmp	.+0      	; 0x84a <main+0x292>
     84a:	00 00       	nop
			_delay_ms(100);
			PORTB &= ~(1<<5);
     84c:	c5 98       	cbi	0x18, 5	; 24
     84e:	bf ef       	ldi	r27, 0xFF	; 255
     850:	20 e7       	ldi	r18, 0x70	; 112
     852:	82 e0       	ldi	r24, 0x02	; 2
     854:	b1 50       	subi	r27, 0x01	; 1
     856:	20 40       	sbci	r18, 0x00	; 0
     858:	80 40       	sbci	r24, 0x00	; 0
     85a:	e1 f7       	brne	.-8      	; 0x854 <main+0x29c>
     85c:	00 c0       	rjmp	.+0      	; 0x85e <main+0x2a6>
     85e:	00 00       	nop
			_delay_ms(100);

			PORTB |= (1<<5);
     860:	c5 9a       	sbi	0x18, 5	; 24
     862:	9f ef       	ldi	r25, 0xFF	; 255
     864:	a0 e7       	ldi	r26, 0x70	; 112
     866:	b2 e0       	ldi	r27, 0x02	; 2
     868:	91 50       	subi	r25, 0x01	; 1
     86a:	a0 40       	sbci	r26, 0x00	; 0
     86c:	b0 40       	sbci	r27, 0x00	; 0
     86e:	e1 f7       	brne	.-8      	; 0x868 <main+0x2b0>
     870:	00 c0       	rjmp	.+0      	; 0x872 <main+0x2ba>
     872:	00 00       	nop
			_delay_ms(100);
			PORTB &= ~(1<<5);
     874:	c5 98       	cbi	0x18, 5	; 24
     876:	2f ef       	ldi	r18, 0xFF	; 255
     878:	80 e7       	ldi	r24, 0x70	; 112
     87a:	92 e0       	ldi	r25, 0x02	; 2
     87c:	21 50       	subi	r18, 0x01	; 1
     87e:	80 40       	sbci	r24, 0x00	; 0
     880:	90 40       	sbci	r25, 0x00	; 0
     882:	e1 f7       	brne	.-8      	; 0x87c <main+0x2c4>
     884:	00 c0       	rjmp	.+0      	; 0x886 <main+0x2ce>
     886:	00 00       	nop
			_delay_ms(100);

			PORTB |= (1<<5);
     888:	c5 9a       	sbi	0x18, 5	; 24
     88a:	af ef       	ldi	r26, 0xFF	; 255
     88c:	b0 e7       	ldi	r27, 0x70	; 112
     88e:	22 e0       	ldi	r18, 0x02	; 2
     890:	a1 50       	subi	r26, 0x01	; 1
     892:	b0 40       	sbci	r27, 0x00	; 0
     894:	20 40       	sbci	r18, 0x00	; 0
     896:	e1 f7       	brne	.-8      	; 0x890 <main+0x2d8>
     898:	00 c0       	rjmp	.+0      	; 0x89a <main+0x2e2>
     89a:	00 00       	nop
			_delay_ms(100);
			PORTB &= ~(1<<5);
     89c:	c5 98       	cbi	0x18, 5	; 24
     89e:	8f ef       	ldi	r24, 0xFF	; 255
     8a0:	90 e7       	ldi	r25, 0x70	; 112
     8a2:	a2 e0       	ldi	r26, 0x02	; 2
     8a4:	81 50       	subi	r24, 0x01	; 1
     8a6:	90 40       	sbci	r25, 0x00	; 0
     8a8:	a0 40       	sbci	r26, 0x00	; 0
     8aa:	e1 f7       	brne	.-8      	; 0x8a4 <main+0x2ec>
     8ac:	00 c0       	rjmp	.+0      	; 0x8ae <main+0x2f6>
     8ae:	00 00       	nop
			_delay_ms(100);

			PORTB |= (1<<5);
     8b0:	c5 9a       	sbi	0x18, 5	; 24
     8b2:	bf ef       	ldi	r27, 0xFF	; 255
     8b4:	20 e7       	ldi	r18, 0x70	; 112
     8b6:	82 e0       	ldi	r24, 0x02	; 2
     8b8:	b1 50       	subi	r27, 0x01	; 1
     8ba:	20 40       	sbci	r18, 0x00	; 0
     8bc:	80 40       	sbci	r24, 0x00	; 0
     8be:	e1 f7       	brne	.-8      	; 0x8b8 <main+0x300>
     8c0:	00 c0       	rjmp	.+0      	; 0x8c2 <main+0x30a>
     8c2:	00 00       	nop
			_delay_ms(100);
			PORTB &= ~(1<<5);
     8c4:	c5 98       	cbi	0x18, 5	; 24
     8c6:	9f ef       	ldi	r25, 0xFF	; 255
     8c8:	a0 e7       	ldi	r26, 0x70	; 112
     8ca:	b2 e0       	ldi	r27, 0x02	; 2
     8cc:	91 50       	subi	r25, 0x01	; 1
     8ce:	a0 40       	sbci	r26, 0x00	; 0
     8d0:	b0 40       	sbci	r27, 0x00	; 0
     8d2:	e1 f7       	brne	.-8      	; 0x8cc <main+0x314>
     8d4:	00 c0       	rjmp	.+0      	; 0x8d6 <main+0x31e>
     8d6:	00 00       	nop
			_delay_ms(100);

		}
				
		
		if ((~PINB & (1<<0)) && (perm_butt == 0))
     8d8:	b0 99       	sbic	0x16, 0	; 22
     8da:	35 c0       	rjmp	.+106    	; 0x946 <main+0x38e>
     8dc:	80 91 6a 00 	lds	r24, 0x006A
     8e0:	81 11       	cpse	r24, r1
     8e2:	31 c0       	rjmp	.+98     	; 0x946 <main+0x38e>
		{
			if (butcount1<5) {butcount1++;}
     8e4:	80 91 68 00 	lds	r24, 0x0068
     8e8:	90 91 69 00 	lds	r25, 0x0069
     8ec:	85 30       	cpi	r24, 0x05	; 5
     8ee:	91 05       	cpc	r25, r1
     8f0:	30 f4       	brcc	.+12     	; 0x8fe <main+0x346>
     8f2:	01 96       	adiw	r24, 0x01	; 1
     8f4:	90 93 69 00 	sts	0x0069, r25
     8f8:	80 93 68 00 	sts	0x0068, r24
     8fc:	2f c0       	rjmp	.+94     	; 0x95c <main+0x3a4>
			else 
			{
				
				contr_altit_1 = T;
     8fe:	80 91 8c 00 	lds	r24, 0x008C
     902:	90 91 8d 00 	lds	r25, 0x008D
     906:	a0 91 8e 00 	lds	r26, 0x008E
     90a:	b0 91 8f 00 	lds	r27, 0x008F
     90e:	80 93 74 00 	sts	0x0074, r24
     912:	90 93 75 00 	sts	0x0075, r25
     916:	a0 93 76 00 	sts	0x0076, r26
     91a:	b0 93 77 00 	sts	0x0077, r27
				k = T;
     91e:	80 93 86 00 	sts	0x0086, r24
     922:	90 93 87 00 	sts	0x0087, r25
     926:	a0 93 88 00 	sts	0x0088, r26
     92a:	b0 93 89 00 	sts	0x0089, r27
     92e:	2f ef       	ldi	r18, 0xFF	; 255
     930:	89 e6       	ldi	r24, 0x69	; 105
     932:	98 e1       	ldi	r25, 0x18	; 24
     934:	21 50       	subi	r18, 0x01	; 1
     936:	80 40       	sbci	r24, 0x00	; 0
     938:	90 40       	sbci	r25, 0x00	; 0
     93a:	e1 f7       	brne	.-8      	; 0x934 <main+0x37c>
     93c:	00 c0       	rjmp	.+0      	; 0x93e <main+0x386>
     93e:	00 00       	nop
				_delay_ms(1000);
				perm_butt = 1;
     940:	30 92 6a 00 	sts	0x006A, r3
     944:	0b c0       	rjmp	.+22     	; 0x95c <main+0x3a4>
			}
		}
		else {if (butcount1>0) {butcount1--;}}
     946:	80 91 68 00 	lds	r24, 0x0068
     94a:	90 91 69 00 	lds	r25, 0x0069
     94e:	00 97       	sbiw	r24, 0x00	; 0
     950:	29 f0       	breq	.+10     	; 0x95c <main+0x3a4>
     952:	01 97       	sbiw	r24, 0x01	; 1
     954:	90 93 69 00 	sts	0x0069, r25
     958:	80 93 68 00 	sts	0x0068, r24

		if ((~PINB & (1<<0)) && (perm_butt == 1))
     95c:	b0 99       	sbic	0x16, 0	; 22
     95e:	35 c0       	rjmp	.+106    	; 0x9ca <main+0x412>
     960:	80 91 6a 00 	lds	r24, 0x006A
     964:	81 30       	cpi	r24, 0x01	; 1
     966:	89 f5       	brne	.+98     	; 0x9ca <main+0x412>
		{
			if (butcount2<5) {butcount2++;}
     968:	80 91 66 00 	lds	r24, 0x0066
     96c:	90 91 67 00 	lds	r25, 0x0067
     970:	85 30       	cpi	r24, 0x05	; 5
     972:	91 05       	cpc	r25, r1
     974:	30 f4       	brcc	.+12     	; 0x982 <main+0x3ca>
     976:	01 96       	adiw	r24, 0x01	; 1
     978:	90 93 67 00 	sts	0x0067, r25
     97c:	80 93 66 00 	sts	0x0066, r24
     980:	2f c0       	rjmp	.+94     	; 0x9e0 <main+0x428>
			else
			{
				contr_altit_2 = T;
     982:	80 91 8c 00 	lds	r24, 0x008C
     986:	90 91 8d 00 	lds	r25, 0x008D
     98a:	a0 91 8e 00 	lds	r26, 0x008E
     98e:	b0 91 8f 00 	lds	r27, 0x008F
     992:	80 93 98 00 	sts	0x0098, r24
     996:	90 93 99 00 	sts	0x0099, r25
     99a:	a0 93 9a 00 	sts	0x009A, r26
     99e:	b0 93 9b 00 	sts	0x009B, r27
				k = T;
     9a2:	80 93 86 00 	sts	0x0086, r24
     9a6:	90 93 87 00 	sts	0x0087, r25
     9aa:	a0 93 88 00 	sts	0x0088, r26
     9ae:	b0 93 89 00 	sts	0x0089, r27
     9b2:	af ef       	ldi	r26, 0xFF	; 255
     9b4:	b3 ed       	ldi	r27, 0xD3	; 211
     9b6:	20 e3       	ldi	r18, 0x30	; 48
     9b8:	a1 50       	subi	r26, 0x01	; 1
     9ba:	b0 40       	sbci	r27, 0x00	; 0
     9bc:	20 40       	sbci	r18, 0x00	; 0
     9be:	e1 f7       	brne	.-8      	; 0x9b8 <main+0x400>
     9c0:	00 c0       	rjmp	.+0      	; 0x9c2 <main+0x40a>
     9c2:	00 00       	nop
				_delay_ms(2000);
				perm_butt = 2;
     9c4:	20 92 6a 00 	sts	0x006A, r2
     9c8:	0b c0       	rjmp	.+22     	; 0x9e0 <main+0x428>
			}
		}
		else {if (butcount2>0) {butcount2--;}}
     9ca:	80 91 66 00 	lds	r24, 0x0066
     9ce:	90 91 67 00 	lds	r25, 0x0067
     9d2:	00 97       	sbiw	r24, 0x00	; 0
     9d4:	29 f0       	breq	.+10     	; 0x9e0 <main+0x428>
     9d6:	01 97       	sbiw	r24, 0x01	; 1
     9d8:	90 93 67 00 	sts	0x0067, r25
     9dc:	80 93 66 00 	sts	0x0066, r24

		if ((~PINB & (1<<0)) && (perm_butt == 2))
     9e0:	b0 99       	sbic	0x16, 0	; 22
     9e2:	8b c0       	rjmp	.+278    	; 0xafa <main+0x542>
     9e4:	80 91 6a 00 	lds	r24, 0x006A
     9e8:	82 30       	cpi	r24, 0x02	; 2
     9ea:	09 f0       	breq	.+2      	; 0x9ee <main+0x436>
     9ec:	86 c0       	rjmp	.+268    	; 0xafa <main+0x542>
		{
			if (butcount3<5) {butcount3++;}
     9ee:	80 91 64 00 	lds	r24, 0x0064
     9f2:	90 91 65 00 	lds	r25, 0x0065
     9f6:	85 30       	cpi	r24, 0x05	; 5
     9f8:	91 05       	cpc	r25, r1
     9fa:	30 f4       	brcc	.+12     	; 0xa08 <main+0x450>
     9fc:	01 96       	adiw	r24, 0x01	; 1
     9fe:	90 93 65 00 	sts	0x0065, r25
     a02:	80 93 64 00 	sts	0x0064, r24
     a06:	84 c0       	rjmp	.+264    	; 0xb10 <main+0x558>
			else
			{
				
				contr_altit_3 = T;
     a08:	c0 90 8c 00 	lds	r12, 0x008C
     a0c:	d0 90 8d 00 	lds	r13, 0x008D
     a10:	e0 90 8e 00 	lds	r14, 0x008E
     a14:	f0 90 8f 00 	lds	r15, 0x008F
     a18:	c0 92 b8 00 	sts	0x00B8, r12
     a1c:	d0 92 b9 00 	sts	0x00B9, r13
     a20:	e0 92 ba 00 	sts	0x00BA, r14
     a24:	f0 92 bb 00 	sts	0x00BB, r15
				altit = (contr_altit_1+contr_altit_2+contr_altit_3)/3;
     a28:	40 91 74 00 	lds	r20, 0x0074
     a2c:	50 91 75 00 	lds	r21, 0x0075
     a30:	60 91 76 00 	lds	r22, 0x0076
     a34:	70 91 77 00 	lds	r23, 0x0077
     a38:	80 91 98 00 	lds	r24, 0x0098
     a3c:	90 91 99 00 	lds	r25, 0x0099
     a40:	a0 91 9a 00 	lds	r26, 0x009A
     a44:	b0 91 9b 00 	lds	r27, 0x009B
     a48:	84 0f       	add	r24, r20
     a4a:	95 1f       	adc	r25, r21
     a4c:	a6 1f       	adc	r26, r22
     a4e:	b7 1f       	adc	r27, r23
     a50:	bc 01       	movw	r22, r24
     a52:	cd 01       	movw	r24, r26
     a54:	6c 0d       	add	r22, r12
     a56:	7d 1d       	adc	r23, r13
     a58:	8e 1d       	adc	r24, r14
     a5a:	9f 1d       	adc	r25, r15
     a5c:	23 e0       	ldi	r18, 0x03	; 3
     a5e:	30 e0       	ldi	r19, 0x00	; 0
     a60:	40 e0       	ldi	r20, 0x00	; 0
     a62:	50 e0       	ldi	r21, 0x00	; 0
     a64:	a5 d4       	rcall	.+2378   	; 0x13b0 <__divmodsi4>
     a66:	20 93 b4 00 	sts	0x00B4, r18
     a6a:	30 93 b5 00 	sts	0x00B5, r19
     a6e:	40 93 b6 00 	sts	0x00B6, r20
     a72:	50 93 b7 00 	sts	0x00B7, r21
				k = T;
     a76:	c0 92 86 00 	sts	0x0086, r12
     a7a:	d0 92 87 00 	sts	0x0087, r13
     a7e:	e0 92 88 00 	sts	0x0088, r14
     a82:	f0 92 89 00 	sts	0x0089, r15
     a86:	8f ef       	ldi	r24, 0xFF	; 255
     a88:	93 ed       	ldi	r25, 0xD3	; 211
     a8a:	a0 e3       	ldi	r26, 0x30	; 48
     a8c:	81 50       	subi	r24, 0x01	; 1
     a8e:	90 40       	sbci	r25, 0x00	; 0
     a90:	a0 40       	sbci	r26, 0x00	; 0
     a92:	e1 f7       	brne	.-8      	; 0xa8c <main+0x4d4>
     a94:	00 c0       	rjmp	.+0      	; 0xa96 <main+0x4de>
     a96:	00 00       	nop
				_delay_ms(2000);
				k = 8888;
     a98:	88 eb       	ldi	r24, 0xB8	; 184
     a9a:	92 e2       	ldi	r25, 0x22	; 34
     a9c:	a0 e0       	ldi	r26, 0x00	; 0
     a9e:	b0 e0       	ldi	r27, 0x00	; 0
     aa0:	80 93 86 00 	sts	0x0086, r24
     aa4:	90 93 87 00 	sts	0x0087, r25
     aa8:	a0 93 88 00 	sts	0x0088, r26
     aac:	b0 93 89 00 	sts	0x0089, r27
     ab0:	9f ef       	ldi	r25, 0xFF	; 255
     ab2:	a1 e1       	ldi	r26, 0x11	; 17
     ab4:	ba e7       	ldi	r27, 0x7A	; 122
     ab6:	91 50       	subi	r25, 0x01	; 1
     ab8:	a0 40       	sbci	r26, 0x00	; 0
     aba:	b0 40       	sbci	r27, 0x00	; 0
     abc:	e1 f7       	brne	.-8      	; 0xab6 <main+0x4fe>
     abe:	00 c0       	rjmp	.+0      	; 0xac0 <main+0x508>
     ac0:	00 00       	nop
				_delay_ms(5000);
				k = altit;
     ac2:	80 91 b4 00 	lds	r24, 0x00B4
     ac6:	90 91 b5 00 	lds	r25, 0x00B5
     aca:	a0 91 b6 00 	lds	r26, 0x00B6
     ace:	b0 91 b7 00 	lds	r27, 0x00B7
     ad2:	80 93 86 00 	sts	0x0086, r24
     ad6:	90 93 87 00 	sts	0x0087, r25
     ada:	a0 93 88 00 	sts	0x0088, r26
     ade:	b0 93 89 00 	sts	0x0089, r27
     ae2:	2f ef       	ldi	r18, 0xFF	; 255
     ae4:	83 ed       	ldi	r24, 0xD3	; 211
     ae6:	90 e3       	ldi	r25, 0x30	; 48
     ae8:	21 50       	subi	r18, 0x01	; 1
     aea:	80 40       	sbci	r24, 0x00	; 0
     aec:	90 40       	sbci	r25, 0x00	; 0
     aee:	e1 f7       	brne	.-8      	; 0xae8 <main+0x530>
     af0:	00 c0       	rjmp	.+0      	; 0xaf2 <main+0x53a>
     af2:	00 00       	nop
				_delay_ms(2000);
				
				perm_butt = 0;
     af4:	10 92 6a 00 	sts	0x006A, r1
     af8:	0b c0       	rjmp	.+22     	; 0xb10 <main+0x558>
			}
		}
		else {if (butcount3>0) {butcount3--;} }
     afa:	80 91 64 00 	lds	r24, 0x0064
     afe:	90 91 65 00 	lds	r25, 0x0065
     b02:	00 97       	sbiw	r24, 0x00	; 0
     b04:	29 f0       	breq	.+10     	; 0xb10 <main+0x558>
     b06:	01 97       	sbiw	r24, 0x01	; 1
     b08:	90 93 65 00 	sts	0x0065, r25
     b0c:	80 93 64 00 	sts	0x0064, r24
			
		if (~PINB & (1<<6))
     b10:	b6 99       	sbic	0x16, 6	; 22
     b12:	96 c1       	rjmp	.+812    	; 0xe40 <main+0x888>
		{
			if (butcount6<5) {butcount6++;}
     b14:	80 91 62 00 	lds	r24, 0x0062
     b18:	90 91 63 00 	lds	r25, 0x0063
     b1c:	85 30       	cpi	r24, 0x05	; 5
     b1e:	91 05       	cpc	r25, r1
     b20:	08 f0       	brcs	.+2      	; 0xb24 <main+0x56c>
     b22:	8b c1       	rjmp	.+790    	; 0xe3a <main+0x882>
     b24:	01 96       	adiw	r24, 0x01	; 1
     b26:	90 93 63 00 	sts	0x0063, r25
     b2a:	80 93 62 00 	sts	0x0062, r24
     b2e:	93 c1       	rjmp	.+806    	; 0xe56 <main+0x89e>
			else
			{
				while (~PINB & (1<<6))
				{
				TWI_W(0xF4, 0x2E);
     b30:	6e e2       	ldi	r22, 0x2E	; 46
     b32:	84 ef       	ldi	r24, 0xF4	; 244
     b34:	97 dc       	rcall	.-1746   	; 0x464 <TWI_W>
     b36:	a7 e2       	ldi	r26, 0x27	; 39
     b38:	b3 e2       	ldi	r27, 0x23	; 35
     b3a:	11 97       	sbiw	r26, 0x01	; 1
     b3c:	f1 f7       	brne	.-4      	; 0xb3a <main+0x582>
     b3e:	00 c0       	rjmp	.+0      	; 0xb40 <main+0x588>
     b40:	00 00       	nop
				_delay_ms(4.5);
				UT = TWI_R_W(0xF6);
     b42:	86 ef       	ldi	r24, 0xF6	; 246
     b44:	51 dc       	rcall	.-1886   	; 0x3e8 <TWI_R_W>
     b46:	a0 e0       	ldi	r26, 0x00	; 0
     b48:	b0 e0       	ldi	r27, 0x00	; 0
     b4a:	80 93 7e 00 	sts	0x007E, r24
     b4e:	90 93 7f 00 	sts	0x007F, r25
     b52:	a0 93 80 00 	sts	0x0080, r26
     b56:	b0 93 81 00 	sts	0x0081, r27

				TWI_W(0xF4, 0x34);
     b5a:	64 e3       	ldi	r22, 0x34	; 52
     b5c:	84 ef       	ldi	r24, 0xF4	; 244
     b5e:	82 dc       	rcall	.-1788   	; 0x464 <TWI_W>
     b60:	87 e2       	ldi	r24, 0x27	; 39
     b62:	93 e2       	ldi	r25, 0x23	; 35
     b64:	01 97       	sbiw	r24, 0x01	; 1
     b66:	f1 f7       	brne	.-4      	; 0xb64 <main+0x5ac>
     b68:	00 c0       	rjmp	.+0      	; 0xb6a <main+0x5b2>
     b6a:	00 00       	nop
				_delay_ms(4.5);
				UP = TWI_R_W(0xF6);
     b6c:	86 ef       	ldi	r24, 0xF6	; 246
     b6e:	3c dc       	rcall	.-1928   	; 0x3e8 <TWI_R_W>
     b70:	a0 e0       	ldi	r26, 0x00	; 0
     b72:	b0 e0       	ldi	r27, 0x00	; 0
     b74:	80 93 c2 00 	sts	0x00C2, r24
     b78:	90 93 c3 00 	sts	0x00C3, r25
     b7c:	a0 93 c4 00 	sts	0x00C4, r26
     b80:	b0 93 c5 00 	sts	0x00C5, r27
				X1 = (UT-AC6)*AC5/32768;
     b84:	80 91 78 00 	lds	r24, 0x0078
     b88:	90 91 79 00 	lds	r25, 0x0079
     b8c:	40 91 7e 00 	lds	r20, 0x007E
     b90:	50 91 7f 00 	lds	r21, 0x007F
     b94:	60 91 80 00 	lds	r22, 0x0080
     b98:	70 91 81 00 	lds	r23, 0x0081
     b9c:	9a 01       	movw	r18, r20
     b9e:	ab 01       	movw	r20, r22
     ba0:	28 1b       	sub	r18, r24
     ba2:	39 0b       	sbc	r19, r25
     ba4:	41 09       	sbc	r20, r1
     ba6:	51 09       	sbc	r21, r1
     ba8:	a0 91 8a 00 	lds	r26, 0x008A
     bac:	b0 91 8b 00 	lds	r27, 0x008B
     bb0:	1b d4       	rcall	.+2102   	; 0x13e8 <__muluhisi3>
     bb2:	6b 01       	movw	r12, r22
     bb4:	7c 01       	movw	r14, r24
     bb6:	99 23       	and	r25, r25
     bb8:	34 f4       	brge	.+12     	; 0xbc6 <main+0x60e>
     bba:	af ef       	ldi	r26, 0xFF	; 255
     bbc:	ca 0e       	add	r12, r26
     bbe:	af e7       	ldi	r26, 0x7F	; 127
     bc0:	da 1e       	adc	r13, r26
     bc2:	e1 1c       	adc	r14, r1
     bc4:	f1 1c       	adc	r15, r1
     bc6:	0b 2e       	mov	r0, r27
     bc8:	bf e0       	ldi	r27, 0x0F	; 15
     bca:	f5 94       	asr	r15
     bcc:	e7 94       	ror	r14
     bce:	d7 94       	ror	r13
     bd0:	c7 94       	ror	r12
     bd2:	ba 95       	dec	r27
     bd4:	d1 f7       	brne	.-12     	; 0xbca <main+0x612>
     bd6:	b0 2d       	mov	r27, r0
     bd8:	c0 92 a1 00 	sts	0x00A1, r12
     bdc:	d0 92 a2 00 	sts	0x00A2, r13
     be0:	e0 92 a3 00 	sts	0x00A3, r14
     be4:	f0 92 a4 00 	sts	0x00A4, r15
				X2 = (long)MC*2048/(X1+MD);
     be8:	60 91 c6 00 	lds	r22, 0x00C6
     bec:	70 91 c7 00 	lds	r23, 0x00C7
     bf0:	cb 01       	movw	r24, r22
     bf2:	aa 27       	eor	r26, r26
     bf4:	97 fd       	sbrc	r25, 7
     bf6:	a0 95       	com	r26
     bf8:	ba 2f       	mov	r27, r26
     bfa:	bc 01       	movw	r22, r24
     bfc:	cd 01       	movw	r24, r26
     bfe:	05 2e       	mov	r0, r21
     c00:	5b e0       	ldi	r21, 0x0B	; 11
     c02:	66 0f       	add	r22, r22
     c04:	77 1f       	adc	r23, r23
     c06:	88 1f       	adc	r24, r24
     c08:	99 1f       	adc	r25, r25
     c0a:	5a 95       	dec	r21
     c0c:	d1 f7       	brne	.-12     	; 0xc02 <main+0x64a>
     c0e:	50 2d       	mov	r21, r0
     c10:	20 91 6f 00 	lds	r18, 0x006F
     c14:	30 91 70 00 	lds	r19, 0x0070
     c18:	89 01       	movw	r16, r18
     c1a:	22 27       	eor	r18, r18
     c1c:	17 fd       	sbrc	r17, 7
     c1e:	20 95       	com	r18
     c20:	32 2f       	mov	r19, r18
     c22:	a9 01       	movw	r20, r18
     c24:	98 01       	movw	r18, r16
     c26:	2c 0d       	add	r18, r12
     c28:	3d 1d       	adc	r19, r13
     c2a:	4e 1d       	adc	r20, r14
     c2c:	5f 1d       	adc	r21, r15
     c2e:	c0 d3       	rcall	.+1920   	; 0x13b0 <__divmodsi4>
     c30:	20 93 82 00 	sts	0x0082, r18
     c34:	30 93 83 00 	sts	0x0083, r19
     c38:	40 93 84 00 	sts	0x0084, r20
     c3c:	50 93 85 00 	sts	0x0085, r21
				B5 = X1+X2;
     c40:	c2 0e       	add	r12, r18
     c42:	d3 1e       	adc	r13, r19
     c44:	e4 1e       	adc	r14, r20
     c46:	f5 1e       	adc	r15, r21
     c48:	c0 92 92 00 	sts	0x0092, r12
     c4c:	d0 92 93 00 	sts	0x0093, r13
     c50:	e0 92 94 00 	sts	0x0094, r14
     c54:	f0 92 95 00 	sts	0x0095, r15
				T = (B5+8)/16;
     c58:	b8 e0       	ldi	r27, 0x08	; 8
     c5a:	cb 0e       	add	r12, r27
     c5c:	d1 1c       	adc	r13, r1
     c5e:	e1 1c       	adc	r14, r1
     c60:	f1 1c       	adc	r15, r1
     c62:	d7 01       	movw	r26, r14
     c64:	c6 01       	movw	r24, r12
     c66:	1a f4       	brpl	.+6      	; 0xc6e <main+0x6b6>
     c68:	0f 96       	adiw	r24, 0x0f	; 15
     c6a:	a1 1d       	adc	r26, r1
     c6c:	b1 1d       	adc	r27, r1
     c6e:	68 94       	set
     c70:	13 f8       	bld	r1, 3
     c72:	b5 95       	asr	r27
     c74:	a7 95       	ror	r26
     c76:	97 95       	ror	r25
     c78:	87 95       	ror	r24
     c7a:	16 94       	lsr	r1
     c7c:	d1 f7       	brne	.-12     	; 0xc72 <main+0x6ba>
     c7e:	80 93 8c 00 	sts	0x008C, r24
     c82:	90 93 8d 00 	sts	0x008D, r25
     c86:	a0 93 8e 00 	sts	0x008E, r26
     c8a:	b0 93 8f 00 	sts	0x008F, r27
					
				k = T;
     c8e:	80 93 86 00 	sts	0x0086, r24
     c92:	90 93 87 00 	sts	0x0087, r25
     c96:	a0 93 88 00 	sts	0x0088, r26
     c9a:	b0 93 89 00 	sts	0x0089, r27
				
		if (T>250)
     c9e:	8b 3f       	cpi	r24, 0xFB	; 251
     ca0:	91 05       	cpc	r25, r1
     ca2:	a1 05       	cpc	r26, r1
     ca4:	b1 05       	cpc	r27, r1
     ca6:	0c f4       	brge	.+2      	; 0xcaa <main+0x6f2>
     ca8:	c8 c0       	rjmp	.+400    	; 0xe3a <main+0x882>
		{
			PORTB |= (1<<5);
     caa:	c5 9a       	sbi	0x18, 5	; 24
     cac:	2f ef       	ldi	r18, 0xFF	; 255
     cae:	80 e7       	ldi	r24, 0x70	; 112
     cb0:	92 e0       	ldi	r25, 0x02	; 2
     cb2:	21 50       	subi	r18, 0x01	; 1
     cb4:	80 40       	sbci	r24, 0x00	; 0
     cb6:	90 40       	sbci	r25, 0x00	; 0
     cb8:	e1 f7       	brne	.-8      	; 0xcb2 <main+0x6fa>
     cba:	00 c0       	rjmp	.+0      	; 0xcbc <main+0x704>
     cbc:	00 00       	nop
			_delay_ms(100);
			PORTB &= ~(1<<5);
     cbe:	c5 98       	cbi	0x18, 5	; 24
     cc0:	af ef       	ldi	r26, 0xFF	; 255
     cc2:	b0 e7       	ldi	r27, 0x70	; 112
     cc4:	22 e0       	ldi	r18, 0x02	; 2
     cc6:	a1 50       	subi	r26, 0x01	; 1
     cc8:	b0 40       	sbci	r27, 0x00	; 0
     cca:	20 40       	sbci	r18, 0x00	; 0
     ccc:	e1 f7       	brne	.-8      	; 0xcc6 <main+0x70e>
     cce:	00 c0       	rjmp	.+0      	; 0xcd0 <main+0x718>
     cd0:	00 00       	nop
			_delay_ms(100);
			PORTB |= (1<<5);
     cd2:	c5 9a       	sbi	0x18, 5	; 24
     cd4:	8f ef       	ldi	r24, 0xFF	; 255
     cd6:	90 e7       	ldi	r25, 0x70	; 112
     cd8:	a2 e0       	ldi	r26, 0x02	; 2
     cda:	81 50       	subi	r24, 0x01	; 1
     cdc:	90 40       	sbci	r25, 0x00	; 0
     cde:	a0 40       	sbci	r26, 0x00	; 0
     ce0:	e1 f7       	brne	.-8      	; 0xcda <main+0x722>
     ce2:	00 c0       	rjmp	.+0      	; 0xce4 <main+0x72c>
     ce4:	00 00       	nop
			_delay_ms(100);
			PORTB &= ~(1<<5);
     ce6:	c5 98       	cbi	0x18, 5	; 24
     ce8:	bf ef       	ldi	r27, 0xFF	; 255
     cea:	20 e7       	ldi	r18, 0x70	; 112
     cec:	82 e0       	ldi	r24, 0x02	; 2
     cee:	b1 50       	subi	r27, 0x01	; 1
     cf0:	20 40       	sbci	r18, 0x00	; 0
     cf2:	80 40       	sbci	r24, 0x00	; 0
     cf4:	e1 f7       	brne	.-8      	; 0xcee <main+0x736>
     cf6:	00 c0       	rjmp	.+0      	; 0xcf8 <main+0x740>
     cf8:	00 00       	nop
			_delay_ms(100);

			PORTB |= (1<<5);
     cfa:	c5 9a       	sbi	0x18, 5	; 24
     cfc:	9f ef       	ldi	r25, 0xFF	; 255
     cfe:	a0 e7       	ldi	r26, 0x70	; 112
     d00:	b2 e0       	ldi	r27, 0x02	; 2
     d02:	91 50       	subi	r25, 0x01	; 1
     d04:	a0 40       	sbci	r26, 0x00	; 0
     d06:	b0 40       	sbci	r27, 0x00	; 0
     d08:	e1 f7       	brne	.-8      	; 0xd02 <main+0x74a>
     d0a:	00 c0       	rjmp	.+0      	; 0xd0c <main+0x754>
     d0c:	00 00       	nop
			_delay_ms(100);
			PORTB &= ~(1<<5);
     d0e:	c5 98       	cbi	0x18, 5	; 24
     d10:	2f ef       	ldi	r18, 0xFF	; 255
     d12:	80 e7       	ldi	r24, 0x70	; 112
     d14:	92 e0       	ldi	r25, 0x02	; 2
     d16:	21 50       	subi	r18, 0x01	; 1
     d18:	80 40       	sbci	r24, 0x00	; 0
     d1a:	90 40       	sbci	r25, 0x00	; 0
     d1c:	e1 f7       	brne	.-8      	; 0xd16 <main+0x75e>
     d1e:	00 c0       	rjmp	.+0      	; 0xd20 <main+0x768>
     d20:	00 00       	nop
			_delay_ms(100);

			PORTB |= (1<<5);
     d22:	c5 9a       	sbi	0x18, 5	; 24
     d24:	af ef       	ldi	r26, 0xFF	; 255
     d26:	b0 e7       	ldi	r27, 0x70	; 112
     d28:	22 e0       	ldi	r18, 0x02	; 2
     d2a:	a1 50       	subi	r26, 0x01	; 1
     d2c:	b0 40       	sbci	r27, 0x00	; 0
     d2e:	20 40       	sbci	r18, 0x00	; 0
     d30:	e1 f7       	brne	.-8      	; 0xd2a <main+0x772>
     d32:	00 c0       	rjmp	.+0      	; 0xd34 <main+0x77c>
     d34:	00 00       	nop
			_delay_ms(100);
			PORTB &= ~(1<<5);
     d36:	c5 98       	cbi	0x18, 5	; 24
     d38:	8f ef       	ldi	r24, 0xFF	; 255
     d3a:	90 e7       	ldi	r25, 0x70	; 112
     d3c:	a2 e0       	ldi	r26, 0x02	; 2
     d3e:	81 50       	subi	r24, 0x01	; 1
     d40:	90 40       	sbci	r25, 0x00	; 0
     d42:	a0 40       	sbci	r26, 0x00	; 0
     d44:	e1 f7       	brne	.-8      	; 0xd3e <main+0x786>
     d46:	00 c0       	rjmp	.+0      	; 0xd48 <main+0x790>
     d48:	00 00       	nop
			_delay_ms(100);

			PORTB |= (1<<5);
     d4a:	c5 9a       	sbi	0x18, 5	; 24
     d4c:	bf ef       	ldi	r27, 0xFF	; 255
     d4e:	20 e7       	ldi	r18, 0x70	; 112
     d50:	82 e0       	ldi	r24, 0x02	; 2
     d52:	b1 50       	subi	r27, 0x01	; 1
     d54:	20 40       	sbci	r18, 0x00	; 0
     d56:	80 40       	sbci	r24, 0x00	; 0
     d58:	e1 f7       	brne	.-8      	; 0xd52 <main+0x79a>
     d5a:	00 c0       	rjmp	.+0      	; 0xd5c <main+0x7a4>
     d5c:	00 00       	nop
			_delay_ms(100);
			PORTB &= ~(1<<5);
     d5e:	c5 98       	cbi	0x18, 5	; 24
     d60:	9f ef       	ldi	r25, 0xFF	; 255
     d62:	a0 e7       	ldi	r26, 0x70	; 112
     d64:	b2 e0       	ldi	r27, 0x02	; 2
     d66:	91 50       	subi	r25, 0x01	; 1
     d68:	a0 40       	sbci	r26, 0x00	; 0
     d6a:	b0 40       	sbci	r27, 0x00	; 0
     d6c:	e1 f7       	brne	.-8      	; 0xd66 <main+0x7ae>
     d6e:	00 c0       	rjmp	.+0      	; 0xd70 <main+0x7b8>
     d70:	00 00       	nop
			_delay_ms(100);

			PORTB |= (1<<5);
     d72:	c5 9a       	sbi	0x18, 5	; 24
     d74:	2f ef       	ldi	r18, 0xFF	; 255
     d76:	80 e7       	ldi	r24, 0x70	; 112
     d78:	92 e0       	ldi	r25, 0x02	; 2
     d7a:	21 50       	subi	r18, 0x01	; 1
     d7c:	80 40       	sbci	r24, 0x00	; 0
     d7e:	90 40       	sbci	r25, 0x00	; 0
     d80:	e1 f7       	brne	.-8      	; 0xd7a <main+0x7c2>
     d82:	00 c0       	rjmp	.+0      	; 0xd84 <main+0x7cc>
     d84:	00 00       	nop
			_delay_ms(100);
			PORTB &= ~(1<<5);
     d86:	c5 98       	cbi	0x18, 5	; 24
     d88:	af ef       	ldi	r26, 0xFF	; 255
     d8a:	b0 e7       	ldi	r27, 0x70	; 112
     d8c:	22 e0       	ldi	r18, 0x02	; 2
     d8e:	a1 50       	subi	r26, 0x01	; 1
     d90:	b0 40       	sbci	r27, 0x00	; 0
     d92:	20 40       	sbci	r18, 0x00	; 0
     d94:	e1 f7       	brne	.-8      	; 0xd8e <main+0x7d6>
     d96:	00 c0       	rjmp	.+0      	; 0xd98 <main+0x7e0>
     d98:	00 00       	nop
			_delay_ms(100);

			PORTB |= (1<<5);
     d9a:	c5 9a       	sbi	0x18, 5	; 24
     d9c:	8f ef       	ldi	r24, 0xFF	; 255
     d9e:	90 e7       	ldi	r25, 0x70	; 112
     da0:	a2 e0       	ldi	r26, 0x02	; 2
     da2:	81 50       	subi	r24, 0x01	; 1
     da4:	90 40       	sbci	r25, 0x00	; 0
     da6:	a0 40       	sbci	r26, 0x00	; 0
     da8:	e1 f7       	brne	.-8      	; 0xda2 <main+0x7ea>
     daa:	00 c0       	rjmp	.+0      	; 0xdac <main+0x7f4>
     dac:	00 00       	nop
			_delay_ms(100);
			PORTB &= ~(1<<5);
     dae:	c5 98       	cbi	0x18, 5	; 24
     db0:	bf ef       	ldi	r27, 0xFF	; 255
     db2:	20 e7       	ldi	r18, 0x70	; 112
     db4:	82 e0       	ldi	r24, 0x02	; 2
     db6:	b1 50       	subi	r27, 0x01	; 1
     db8:	20 40       	sbci	r18, 0x00	; 0
     dba:	80 40       	sbci	r24, 0x00	; 0
     dbc:	e1 f7       	brne	.-8      	; 0xdb6 <main+0x7fe>
     dbe:	00 c0       	rjmp	.+0      	; 0xdc0 <main+0x808>
     dc0:	00 00       	nop
			_delay_ms(100);

			PORTB |= (1<<5);
     dc2:	c5 9a       	sbi	0x18, 5	; 24
     dc4:	9f ef       	ldi	r25, 0xFF	; 255
     dc6:	a0 e7       	ldi	r26, 0x70	; 112
     dc8:	b2 e0       	ldi	r27, 0x02	; 2
     dca:	91 50       	subi	r25, 0x01	; 1
     dcc:	a0 40       	sbci	r26, 0x00	; 0
     dce:	b0 40       	sbci	r27, 0x00	; 0
     dd0:	e1 f7       	brne	.-8      	; 0xdca <main+0x812>
     dd2:	00 c0       	rjmp	.+0      	; 0xdd4 <main+0x81c>
     dd4:	00 00       	nop
			_delay_ms(100);
			PORTB &= ~(1<<5);
     dd6:	c5 98       	cbi	0x18, 5	; 24
     dd8:	2f ef       	ldi	r18, 0xFF	; 255
     dda:	80 e7       	ldi	r24, 0x70	; 112
     ddc:	92 e0       	ldi	r25, 0x02	; 2
     dde:	21 50       	subi	r18, 0x01	; 1
     de0:	80 40       	sbci	r24, 0x00	; 0
     de2:	90 40       	sbci	r25, 0x00	; 0
     de4:	e1 f7       	brne	.-8      	; 0xdde <main+0x826>
     de6:	00 c0       	rjmp	.+0      	; 0xde8 <main+0x830>
     de8:	00 00       	nop
			_delay_ms(100);

			PORTB |= (1<<5);
     dea:	c5 9a       	sbi	0x18, 5	; 24
     dec:	af ef       	ldi	r26, 0xFF	; 255
     dee:	b0 e7       	ldi	r27, 0x70	; 112
     df0:	22 e0       	ldi	r18, 0x02	; 2
     df2:	a1 50       	subi	r26, 0x01	; 1
     df4:	b0 40       	sbci	r27, 0x00	; 0
     df6:	20 40       	sbci	r18, 0x00	; 0
     df8:	e1 f7       	brne	.-8      	; 0xdf2 <main+0x83a>
     dfa:	00 c0       	rjmp	.+0      	; 0xdfc <main+0x844>
     dfc:	00 00       	nop
			_delay_ms(100);
			PORTB &= ~(1<<5);
     dfe:	c5 98       	cbi	0x18, 5	; 24
     e00:	8f ef       	ldi	r24, 0xFF	; 255
     e02:	90 e7       	ldi	r25, 0x70	; 112
     e04:	a2 e0       	ldi	r26, 0x02	; 2
     e06:	81 50       	subi	r24, 0x01	; 1
     e08:	90 40       	sbci	r25, 0x00	; 0
     e0a:	a0 40       	sbci	r26, 0x00	; 0
     e0c:	e1 f7       	brne	.-8      	; 0xe06 <main+0x84e>
     e0e:	00 c0       	rjmp	.+0      	; 0xe10 <main+0x858>
     e10:	00 00       	nop
			_delay_ms(100);

			PORTB |= (1<<5);
     e12:	c5 9a       	sbi	0x18, 5	; 24
     e14:	bf ef       	ldi	r27, 0xFF	; 255
     e16:	20 e7       	ldi	r18, 0x70	; 112
     e18:	82 e0       	ldi	r24, 0x02	; 2
     e1a:	b1 50       	subi	r27, 0x01	; 1
     e1c:	20 40       	sbci	r18, 0x00	; 0
     e1e:	80 40       	sbci	r24, 0x00	; 0
     e20:	e1 f7       	brne	.-8      	; 0xe1a <main+0x862>
     e22:	00 c0       	rjmp	.+0      	; 0xe24 <main+0x86c>
     e24:	00 00       	nop
			_delay_ms(100);
			PORTB &= ~(1<<5);
     e26:	c5 98       	cbi	0x18, 5	; 24
     e28:	9f ef       	ldi	r25, 0xFF	; 255
     e2a:	a0 e7       	ldi	r26, 0x70	; 112
     e2c:	b2 e0       	ldi	r27, 0x02	; 2
     e2e:	91 50       	subi	r25, 0x01	; 1
     e30:	a0 40       	sbci	r26, 0x00	; 0
     e32:	b0 40       	sbci	r27, 0x00	; 0
     e34:	e1 f7       	brne	.-8      	; 0xe2e <main+0x876>
     e36:	00 c0       	rjmp	.+0      	; 0xe38 <main+0x880>
     e38:	00 00       	nop
		if (~PINB & (1<<6))
		{
			if (butcount6<5) {butcount6++;}
			else
			{
				while (~PINB & (1<<6))
     e3a:	b6 9b       	sbis	0x16, 6	; 22
     e3c:	79 ce       	rjmp	.-782    	; 0xb30 <main+0x578>
     e3e:	0b c0       	rjmp	.+22     	; 0xe56 <main+0x89e>
		}
				
				}
			}
		}
		else {if (butcount6>0) {butcount6--;}}
     e40:	80 91 62 00 	lds	r24, 0x0062
     e44:	90 91 63 00 	lds	r25, 0x0063
     e48:	00 97       	sbiw	r24, 0x00	; 0
     e4a:	29 f0       	breq	.+10     	; 0xe56 <main+0x89e>
     e4c:	01 97       	sbiw	r24, 0x01	; 1
     e4e:	90 93 63 00 	sts	0x0063, r25
     e52:	80 93 62 00 	sts	0x0062, r24
			
			

		if (~PINB & (1<<7))
     e56:	b7 99       	sbic	0x16, 7	; 22
     e58:	66 c2       	rjmp	.+1228   	; 0x1326 <main+0xd6e>
		{
			if (butcount7<5) {butcount7++;}
     e5a:	80 91 60 00 	lds	r24, 0x0060
     e5e:	90 91 61 00 	lds	r25, 0x0061
     e62:	85 30       	cpi	r24, 0x05	; 5
     e64:	91 05       	cpc	r25, r1
     e66:	18 f0       	brcs	.+6      	; 0xe6e <main+0x8b6>
			else
			{
				while (~PINB & (1<<7))
     e68:	b7 9b       	sbis	0x16, 7	; 22
     e6a:	07 c0       	rjmp	.+14     	; 0xe7a <main+0x8c2>
     e6c:	67 c2       	rjmp	.+1230   	; 0x133c <main+0xd84>
			
			

		if (~PINB & (1<<7))
		{
			if (butcount7<5) {butcount7++;}
     e6e:	01 96       	adiw	r24, 0x01	; 1
     e70:	90 93 61 00 	sts	0x0061, r25
     e74:	80 93 60 00 	sts	0x0060, r24
     e78:	61 c2       	rjmp	.+1218   	; 0x133c <main+0xd84>
			else
			{
				while (~PINB & (1<<7))
				{
					TWI_W(0xF4, 0x2E);
     e7a:	6e e2       	ldi	r22, 0x2E	; 46
     e7c:	84 ef       	ldi	r24, 0xF4	; 244
     e7e:	f2 da       	rcall	.-2588   	; 0x464 <TWI_W>
     e80:	87 e2       	ldi	r24, 0x27	; 39
     e82:	93 e2       	ldi	r25, 0x23	; 35
     e84:	01 97       	sbiw	r24, 0x01	; 1
     e86:	f1 f7       	brne	.-4      	; 0xe84 <main+0x8cc>
     e88:	00 c0       	rjmp	.+0      	; 0xe8a <main+0x8d2>
     e8a:	00 00       	nop
					_delay_ms(4.5);
					UT = TWI_R_W(0xF6);
     e8c:	86 ef       	ldi	r24, 0xF6	; 246
     e8e:	ac da       	rcall	.-2728   	; 0x3e8 <TWI_R_W>
     e90:	a0 e0       	ldi	r26, 0x00	; 0
     e92:	b0 e0       	ldi	r27, 0x00	; 0
     e94:	80 93 7e 00 	sts	0x007E, r24
     e98:	90 93 7f 00 	sts	0x007F, r25
     e9c:	a0 93 80 00 	sts	0x0080, r26
     ea0:	b0 93 81 00 	sts	0x0081, r27

					TWI_W(0xF4, 0x34);
     ea4:	64 e3       	ldi	r22, 0x34	; 52
     ea6:	84 ef       	ldi	r24, 0xF4	; 244
     ea8:	dd da       	rcall	.-2630   	; 0x464 <TWI_W>
     eaa:	a7 e2       	ldi	r26, 0x27	; 39
     eac:	b3 e2       	ldi	r27, 0x23	; 35
     eae:	11 97       	sbiw	r26, 0x01	; 1
     eb0:	f1 f7       	brne	.-4      	; 0xeae <main+0x8f6>
     eb2:	00 c0       	rjmp	.+0      	; 0xeb4 <main+0x8fc>
     eb4:	00 00       	nop
					_delay_ms(4.5);
					UP = TWI_R_W(0xF6);
     eb6:	86 ef       	ldi	r24, 0xF6	; 246
     eb8:	97 da       	rcall	.-2770   	; 0x3e8 <TWI_R_W>
     eba:	ec 01       	movw	r28, r24
     ebc:	ac 01       	movw	r20, r24
     ebe:	60 e0       	ldi	r22, 0x00	; 0
     ec0:	70 e0       	ldi	r23, 0x00	; 0
     ec2:	40 93 c2 00 	sts	0x00C2, r20
     ec6:	50 93 c3 00 	sts	0x00C3, r21
     eca:	60 93 c4 00 	sts	0x00C4, r22
     ece:	70 93 c5 00 	sts	0x00C5, r23
					X1 = (UT-AC6)*AC5/32768;
     ed2:	80 91 78 00 	lds	r24, 0x0078
     ed6:	90 91 79 00 	lds	r25, 0x0079
     eda:	40 91 7e 00 	lds	r20, 0x007E
     ede:	50 91 7f 00 	lds	r21, 0x007F
     ee2:	60 91 80 00 	lds	r22, 0x0080
     ee6:	70 91 81 00 	lds	r23, 0x0081
     eea:	9a 01       	movw	r18, r20
     eec:	ab 01       	movw	r20, r22
     eee:	28 1b       	sub	r18, r24
     ef0:	39 0b       	sbc	r19, r25
     ef2:	41 09       	sbc	r20, r1
     ef4:	51 09       	sbc	r21, r1
     ef6:	a0 91 8a 00 	lds	r26, 0x008A
     efa:	b0 91 8b 00 	lds	r27, 0x008B
     efe:	74 d2       	rcall	.+1256   	; 0x13e8 <__muluhisi3>
     f00:	6b 01       	movw	r12, r22
     f02:	7c 01       	movw	r14, r24
     f04:	99 23       	and	r25, r25
     f06:	34 f4       	brge	.+12     	; 0xf14 <main+0x95c>
     f08:	bf ef       	ldi	r27, 0xFF	; 255
     f0a:	cb 0e       	add	r12, r27
     f0c:	bf e7       	ldi	r27, 0x7F	; 127
     f0e:	db 1e       	adc	r13, r27
     f10:	e1 1c       	adc	r14, r1
     f12:	f1 1c       	adc	r15, r1
     f14:	0b 2e       	mov	r0, r27
     f16:	bf e0       	ldi	r27, 0x0F	; 15
     f18:	f5 94       	asr	r15
     f1a:	e7 94       	ror	r14
     f1c:	d7 94       	ror	r13
     f1e:	c7 94       	ror	r12
     f20:	ba 95       	dec	r27
     f22:	d1 f7       	brne	.-12     	; 0xf18 <main+0x960>
     f24:	b0 2d       	mov	r27, r0
					X2 = (long)MC*2048/(X1+MD);
     f26:	60 91 c6 00 	lds	r22, 0x00C6
     f2a:	70 91 c7 00 	lds	r23, 0x00C7
     f2e:	cb 01       	movw	r24, r22
     f30:	aa 27       	eor	r26, r26
     f32:	97 fd       	sbrc	r25, 7
     f34:	a0 95       	com	r26
     f36:	ba 2f       	mov	r27, r26
     f38:	bc 01       	movw	r22, r24
     f3a:	cd 01       	movw	r24, r26
     f3c:	05 2e       	mov	r0, r21
     f3e:	5b e0       	ldi	r21, 0x0B	; 11
     f40:	66 0f       	add	r22, r22
     f42:	77 1f       	adc	r23, r23
     f44:	88 1f       	adc	r24, r24
     f46:	99 1f       	adc	r25, r25
     f48:	5a 95       	dec	r21
     f4a:	d1 f7       	brne	.-12     	; 0xf40 <main+0x988>
     f4c:	50 2d       	mov	r21, r0
     f4e:	20 91 6f 00 	lds	r18, 0x006F
     f52:	30 91 70 00 	lds	r19, 0x0070
     f56:	89 01       	movw	r16, r18
     f58:	22 27       	eor	r18, r18
     f5a:	17 fd       	sbrc	r17, 7
     f5c:	20 95       	com	r18
     f5e:	32 2f       	mov	r19, r18
     f60:	a9 01       	movw	r20, r18
     f62:	98 01       	movw	r18, r16
     f64:	2c 0d       	add	r18, r12
     f66:	3d 1d       	adc	r19, r13
     f68:	4e 1d       	adc	r20, r14
     f6a:	5f 1d       	adc	r21, r15
     f6c:	21 d2       	rcall	.+1090   	; 0x13b0 <__divmodsi4>
					B5 = X1+X2;
     f6e:	c2 0e       	add	r12, r18
     f70:	d3 1e       	adc	r13, r19
     f72:	e4 1e       	adc	r14, r20
     f74:	f5 1e       	adc	r15, r21
     f76:	c0 92 92 00 	sts	0x0092, r12
     f7a:	d0 92 93 00 	sts	0x0093, r13
     f7e:	e0 92 94 00 	sts	0x0094, r14
     f82:	f0 92 95 00 	sts	0x0095, r15
					
					T = (B5+8)/16; // для измерения давления эта строка лишняя
     f86:	97 01       	movw	r18, r14
     f88:	86 01       	movw	r16, r12
     f8a:	08 5f       	subi	r16, 0xF8	; 248
     f8c:	1f 4f       	sbci	r17, 0xFF	; 255
     f8e:	2f 4f       	sbci	r18, 0xFF	; 255
     f90:	3f 4f       	sbci	r19, 0xFF	; 255
     f92:	b9 01       	movw	r22, r18
     f94:	a8 01       	movw	r20, r16
     f96:	33 23       	and	r19, r19
     f98:	24 f4       	brge	.+8      	; 0xfa2 <main+0x9ea>
     f9a:	41 5f       	subi	r20, 0xF1	; 241
     f9c:	5f 4f       	sbci	r21, 0xFF	; 255
     f9e:	6f 4f       	sbci	r22, 0xFF	; 255
     fa0:	7f 4f       	sbci	r23, 0xFF	; 255
     fa2:	68 94       	set
     fa4:	13 f8       	bld	r1, 3
     fa6:	75 95       	asr	r23
     fa8:	67 95       	ror	r22
     faa:	57 95       	ror	r21
     fac:	47 95       	ror	r20
     fae:	16 94       	lsr	r1
     fb0:	d1 f7       	brne	.-12     	; 0xfa6 <main+0x9ee>
     fb2:	40 93 8c 00 	sts	0x008C, r20
     fb6:	50 93 8d 00 	sts	0x008D, r21
     fba:	60 93 8e 00 	sts	0x008E, r22
     fbe:	70 93 8f 00 	sts	0x008F, r23
					perm_butt = 1;
     fc2:	30 92 6a 00 	sts	0x006A, r3
					
					B6 = B5-4000;
     fc6:	20 ea       	ldi	r18, 0xA0	; 160
     fc8:	c2 1a       	sub	r12, r18
     fca:	2f e0       	ldi	r18, 0x0F	; 15
     fcc:	d2 0a       	sbc	r13, r18
     fce:	e1 08       	sbc	r14, r1
     fd0:	f1 08       	sbc	r15, r1
     fd2:	c0 92 7a 00 	sts	0x007A, r12
     fd6:	d0 92 7b 00 	sts	0x007B, r13
     fda:	e0 92 7c 00 	sts	0x007C, r14
     fde:	f0 92 7d 00 	sts	0x007D, r15
					X1 = (B2*(B6*B6/4096))/2048;
     fe2:	a7 01       	movw	r20, r14
     fe4:	96 01       	movw	r18, r12
     fe6:	c7 01       	movw	r24, r14
     fe8:	b6 01       	movw	r22, r12
     fea:	b1 d1       	rcall	.+866    	; 0x134e <__mulsi3>
     fec:	2b 01       	movw	r4, r22
     fee:	3c 01       	movw	r6, r24
     ff0:	99 23       	and	r25, r25
     ff2:	34 f4       	brge	.+12     	; 0x1000 <main+0xa48>
     ff4:	af ef       	ldi	r26, 0xFF	; 255
     ff6:	4a 0e       	add	r4, r26
     ff8:	af e0       	ldi	r26, 0x0F	; 15
     ffa:	5a 1e       	adc	r5, r26
     ffc:	61 1c       	adc	r6, r1
     ffe:	71 1c       	adc	r7, r1
    1000:	03 2e       	mov	r0, r19
    1002:	3c e0       	ldi	r19, 0x0C	; 12
    1004:	75 94       	asr	r7
    1006:	67 94       	ror	r6
    1008:	57 94       	ror	r5
    100a:	47 94       	ror	r4
    100c:	3a 95       	dec	r19
    100e:	d1 f7       	brne	.-12     	; 0x1004 <main+0xa4c>
    1010:	30 2d       	mov	r19, r0
    1012:	a0 91 a9 00 	lds	r26, 0x00A9
    1016:	b0 91 aa 00 	lds	r27, 0x00AA
    101a:	a3 01       	movw	r20, r6
    101c:	92 01       	movw	r18, r4
    101e:	ee d1       	rcall	.+988    	; 0x13fc <__mulshisi3>
    1020:	4b 01       	movw	r8, r22
    1022:	5c 01       	movw	r10, r24
    1024:	99 23       	and	r25, r25
    1026:	34 f4       	brge	.+12     	; 0x1034 <main+0xa7c>
    1028:	bf ef       	ldi	r27, 0xFF	; 255
    102a:	8b 0e       	add	r8, r27
    102c:	b7 e0       	ldi	r27, 0x07	; 7
    102e:	9b 1e       	adc	r9, r27
    1030:	a1 1c       	adc	r10, r1
    1032:	b1 1c       	adc	r11, r1
    1034:	07 2e       	mov	r0, r23
    1036:	7b e0       	ldi	r23, 0x0B	; 11
    1038:	b5 94       	asr	r11
    103a:	a7 94       	ror	r10
    103c:	97 94       	ror	r9
    103e:	87 94       	ror	r8
    1040:	7a 95       	dec	r23
    1042:	d1 f7       	brne	.-12     	; 0x1038 <main+0xa80>
    1044:	70 2d       	mov	r23, r0
					X2 = AC2*B6/2048;
    1046:	a0 91 a5 00 	lds	r26, 0x00A5
    104a:	b0 91 a6 00 	lds	r27, 0x00A6
    104e:	a7 01       	movw	r20, r14
    1050:	96 01       	movw	r18, r12
    1052:	d4 d1       	rcall	.+936    	; 0x13fc <__mulshisi3>
    1054:	8b 01       	movw	r16, r22
    1056:	9c 01       	movw	r18, r24
    1058:	99 23       	and	r25, r25
    105a:	24 f4       	brge	.+8      	; 0x1064 <main+0xaac>
    105c:	01 50       	subi	r16, 0x01	; 1
    105e:	18 4f       	sbci	r17, 0xF8	; 248
    1060:	2f 4f       	sbci	r18, 0xFF	; 255
    1062:	3f 4f       	sbci	r19, 0xFF	; 255
    1064:	b9 01       	movw	r22, r18
    1066:	a8 01       	movw	r20, r16
    1068:	03 2e       	mov	r0, r19
    106a:	3b e0       	ldi	r19, 0x0B	; 11
    106c:	75 95       	asr	r23
    106e:	67 95       	ror	r22
    1070:	57 95       	ror	r21
    1072:	47 95       	ror	r20
    1074:	3a 95       	dec	r19
    1076:	d1 f7       	brne	.-12     	; 0x106c <main+0xab4>
    1078:	30 2d       	mov	r19, r0
					X3 = X1+X2;
    107a:	48 0d       	add	r20, r8
    107c:	59 1d       	adc	r21, r9
    107e:	6a 1d       	adc	r22, r10
    1080:	7b 1d       	adc	r23, r11
					B3 = ((AC1*4+X3)+2)/4;
    1082:	00 91 71 00 	lds	r16, 0x0071
    1086:	10 91 72 00 	lds	r17, 0x0072
    108a:	00 0f       	add	r16, r16
    108c:	11 1f       	adc	r17, r17
    108e:	00 0f       	add	r16, r16
    1090:	11 1f       	adc	r17, r17
    1092:	22 27       	eor	r18, r18
    1094:	17 fd       	sbrc	r17, 7
    1096:	20 95       	com	r18
    1098:	32 2f       	mov	r19, r18
    109a:	40 0f       	add	r20, r16
    109c:	51 1f       	adc	r21, r17
    109e:	62 1f       	adc	r22, r18
    10a0:	73 1f       	adc	r23, r19
    10a2:	4e 5f       	subi	r20, 0xFE	; 254
    10a4:	5f 4f       	sbci	r21, 0xFF	; 255
    10a6:	6f 4f       	sbci	r22, 0xFF	; 255
    10a8:	7f 4f       	sbci	r23, 0xFF	; 255
    10aa:	4a 01       	movw	r8, r20
    10ac:	5b 01       	movw	r10, r22
    10ae:	77 23       	and	r23, r23
    10b0:	2c f4       	brge	.+10     	; 0x10bc <main+0xb04>
    10b2:	23 e0       	ldi	r18, 0x03	; 3
    10b4:	82 0e       	add	r8, r18
    10b6:	91 1c       	adc	r9, r1
    10b8:	a1 1c       	adc	r10, r1
    10ba:	b1 1c       	adc	r11, r1
    10bc:	b5 94       	asr	r11
    10be:	a7 94       	ror	r10
    10c0:	97 94       	ror	r9
    10c2:	87 94       	ror	r8
    10c4:	b5 94       	asr	r11
    10c6:	a7 94       	ror	r10
    10c8:	97 94       	ror	r9
    10ca:	87 94       	ror	r8
    10cc:	80 92 c8 00 	sts	0x00C8, r8
    10d0:	90 92 c9 00 	sts	0x00C9, r9
    10d4:	a0 92 ca 00 	sts	0x00CA, r10
    10d8:	b0 92 cb 00 	sts	0x00CB, r11
					X1 = AC3*B6/8192;
    10dc:	a0 91 a7 00 	lds	r26, 0x00A7
    10e0:	b0 91 a8 00 	lds	r27, 0x00A8
    10e4:	a7 01       	movw	r20, r14
    10e6:	96 01       	movw	r18, r12
    10e8:	89 d1       	rcall	.+786    	; 0x13fc <__mulshisi3>
    10ea:	6b 01       	movw	r12, r22
    10ec:	7c 01       	movw	r14, r24
    10ee:	99 23       	and	r25, r25
    10f0:	34 f4       	brge	.+12     	; 0x10fe <main+0xb46>
    10f2:	af ef       	ldi	r26, 0xFF	; 255
    10f4:	ca 0e       	add	r12, r26
    10f6:	af e1       	ldi	r26, 0x1F	; 31
    10f8:	da 1e       	adc	r13, r26
    10fa:	e1 1c       	adc	r14, r1
    10fc:	f1 1c       	adc	r15, r1
    10fe:	0b 2e       	mov	r0, r27
    1100:	bd e0       	ldi	r27, 0x0D	; 13
    1102:	f5 94       	asr	r15
    1104:	e7 94       	ror	r14
    1106:	d7 94       	ror	r13
    1108:	c7 94       	ror	r12
    110a:	ba 95       	dec	r27
    110c:	d1 f7       	brne	.-12     	; 0x1102 <main+0xb4a>
    110e:	b0 2d       	mov	r27, r0
					X2 = (B1*(B6*B6/4096))/65536;
    1110:	a0 91 c0 00 	lds	r26, 0x00C0
    1114:	b0 91 c1 00 	lds	r27, 0x00C1
    1118:	a3 01       	movw	r20, r6
    111a:	92 01       	movw	r18, r4
    111c:	6f d1       	rcall	.+734    	; 0x13fc <__mulshisi3>
    111e:	8b 01       	movw	r16, r22
    1120:	9c 01       	movw	r18, r24
    1122:	99 23       	and	r25, r25
    1124:	24 f4       	brge	.+8      	; 0x112e <main+0xb76>
    1126:	01 50       	subi	r16, 0x01	; 1
    1128:	11 09       	sbc	r17, r1
    112a:	2f 4f       	sbci	r18, 0xFF	; 255
    112c:	3f 4f       	sbci	r19, 0xFF	; 255
    112e:	a9 01       	movw	r20, r18
    1130:	77 27       	eor	r23, r23
    1132:	57 fd       	sbrc	r21, 7
    1134:	70 95       	com	r23
    1136:	67 2f       	mov	r22, r23
					X3 = ((X1+X2)+2)/4;
    1138:	c4 0e       	add	r12, r20
    113a:	d5 1e       	adc	r13, r21
    113c:	e6 1e       	adc	r14, r22
    113e:	f7 1e       	adc	r15, r23
    1140:	b2 e0       	ldi	r27, 0x02	; 2
    1142:	cb 0e       	add	r12, r27
    1144:	d1 1c       	adc	r13, r1
    1146:	e1 1c       	adc	r14, r1
    1148:	f1 1c       	adc	r15, r1
    114a:	b7 01       	movw	r22, r14
    114c:	a6 01       	movw	r20, r12
    114e:	22 f4       	brpl	.+8      	; 0x1158 <main+0xba0>
    1150:	4d 5f       	subi	r20, 0xFD	; 253
    1152:	5f 4f       	sbci	r21, 0xFF	; 255
    1154:	6f 4f       	sbci	r22, 0xFF	; 255
    1156:	7f 4f       	sbci	r23, 0xFF	; 255
    1158:	75 95       	asr	r23
    115a:	67 95       	ror	r22
    115c:	57 95       	ror	r21
    115e:	47 95       	ror	r20
    1160:	75 95       	asr	r23
    1162:	67 95       	ror	r22
    1164:	57 95       	ror	r21
    1166:	47 95       	ror	r20
    1168:	40 93 ab 00 	sts	0x00AB, r20
    116c:	50 93 ac 00 	sts	0x00AC, r21
    1170:	60 93 ad 00 	sts	0x00AD, r22
    1174:	70 93 ae 00 	sts	0x00AE, r23
					B4 = AC4*(unsigned long)(X3+32768)/32768;
    1178:	9a 01       	movw	r18, r20
    117a:	ab 01       	movw	r20, r22
    117c:	30 58       	subi	r19, 0x80	; 128
    117e:	4f 4f       	sbci	r20, 0xFF	; 255
    1180:	5f 4f       	sbci	r21, 0xFF	; 255
    1182:	a0 91 96 00 	lds	r26, 0x0096
    1186:	b0 91 97 00 	lds	r27, 0x0097
    118a:	2e d1       	rcall	.+604    	; 0x13e8 <__muluhisi3>
    118c:	6b 01       	movw	r12, r22
    118e:	7c 01       	movw	r14, r24
    1190:	0b 2e       	mov	r0, r27
    1192:	bf e0       	ldi	r27, 0x0F	; 15
    1194:	f6 94       	lsr	r15
    1196:	e7 94       	ror	r14
    1198:	d7 94       	ror	r13
    119a:	c7 94       	ror	r12
    119c:	ba 95       	dec	r27
    119e:	d1 f7       	brne	.-12     	; 0x1194 <main+0xbdc>
    11a0:	b0 2d       	mov	r27, r0
    11a2:	c0 92 b0 00 	sts	0x00B0, r12
    11a6:	d0 92 b1 00 	sts	0x00B1, r13
    11aa:	e0 92 b2 00 	sts	0x00B2, r14
    11ae:	f0 92 b3 00 	sts	0x00B3, r15
					B7 = ((unsigned long)UP-B3)*(50000>>0x00);
    11b2:	ce 01       	movw	r24, r28
    11b4:	a0 e0       	ldi	r26, 0x00	; 0
    11b6:	b0 e0       	ldi	r27, 0x00	; 0
    11b8:	9c 01       	movw	r18, r24
    11ba:	ad 01       	movw	r20, r26
    11bc:	28 19       	sub	r18, r8
    11be:	39 09       	sbc	r19, r9
    11c0:	4a 09       	sbc	r20, r10
    11c2:	5b 09       	sbc	r21, r11
    11c4:	a0 e5       	ldi	r26, 0x50	; 80
    11c6:	b3 ec       	ldi	r27, 0xC3	; 195
    11c8:	0f d1       	rcall	.+542    	; 0x13e8 <__muluhisi3>
    11ca:	60 93 bc 00 	sts	0x00BC, r22
    11ce:	70 93 bd 00 	sts	0x00BD, r23
    11d2:	80 93 be 00 	sts	0x00BE, r24
    11d6:	90 93 bf 00 	sts	0x00BF, r25
					if (B7<0x80000000)
    11da:	99 23       	and	r25, r25
    11dc:	84 f0       	brlt	.+32     	; 0x11fe <main+0xc46>
					{
						p = (B7*2)/B4;
    11de:	66 0f       	add	r22, r22
    11e0:	77 1f       	adc	r23, r23
    11e2:	88 1f       	adc	r24, r24
    11e4:	99 1f       	adc	r25, r25
    11e6:	a7 01       	movw	r20, r14
    11e8:	96 01       	movw	r18, r12
    11ea:	c0 d0       	rcall	.+384    	; 0x136c <__udivmodsi4>
    11ec:	20 93 6b 00 	sts	0x006B, r18
    11f0:	30 93 6c 00 	sts	0x006C, r19
    11f4:	40 93 6d 00 	sts	0x006D, r20
    11f8:	50 93 6e 00 	sts	0x006E, r21
    11fc:	11 c0       	rjmp	.+34     	; 0x1220 <main+0xc68>
					}
					else
					{
					p = (B7/B4)*2;
    11fe:	a7 01       	movw	r20, r14
    1200:	96 01       	movw	r18, r12
    1202:	b4 d0       	rcall	.+360    	; 0x136c <__udivmodsi4>
    1204:	da 01       	movw	r26, r20
    1206:	c9 01       	movw	r24, r18
    1208:	88 0f       	add	r24, r24
    120a:	99 1f       	adc	r25, r25
    120c:	aa 1f       	adc	r26, r26
    120e:	bb 1f       	adc	r27, r27
    1210:	80 93 6b 00 	sts	0x006B, r24
    1214:	90 93 6c 00 	sts	0x006C, r25
    1218:	a0 93 6d 00 	sts	0x006D, r26
    121c:	b0 93 6e 00 	sts	0x006E, r27
					}
					X1 = (p/256)*(p/256);
    1220:	c0 90 6b 00 	lds	r12, 0x006B
    1224:	d0 90 6c 00 	lds	r13, 0x006C
    1228:	e0 90 6d 00 	lds	r14, 0x006D
    122c:	f0 90 6e 00 	lds	r15, 0x006E
    1230:	d7 01       	movw	r26, r14
    1232:	c6 01       	movw	r24, r12
    1234:	ff 20       	and	r15, r15
    1236:	24 f4       	brge	.+8      	; 0x1240 <main+0xc88>
    1238:	81 50       	subi	r24, 0x01	; 1
    123a:	9f 4f       	sbci	r25, 0xFF	; 255
    123c:	af 4f       	sbci	r26, 0xFF	; 255
    123e:	bf 4f       	sbci	r27, 0xFF	; 255
    1240:	69 2f       	mov	r22, r25
    1242:	7a 2f       	mov	r23, r26
    1244:	8b 2f       	mov	r24, r27
    1246:	99 27       	eor	r25, r25
    1248:	87 fd       	sbrc	r24, 7
    124a:	9a 95       	dec	r25
    124c:	9b 01       	movw	r18, r22
    124e:	ac 01       	movw	r20, r24
    1250:	7e d0       	rcall	.+252    	; 0x134e <__mulsi3>
    1252:	9b 01       	movw	r18, r22
    1254:	ac 01       	movw	r20, r24
					X1 = (X1*3038)/65536;
    1256:	ae ed       	ldi	r26, 0xDE	; 222
    1258:	bb e0       	ldi	r27, 0x0B	; 11
    125a:	c6 d0       	rcall	.+396    	; 0x13e8 <__muluhisi3>
    125c:	8b 01       	movw	r16, r22
    125e:	9c 01       	movw	r18, r24
    1260:	99 23       	and	r25, r25
    1262:	24 f4       	brge	.+8      	; 0x126c <main+0xcb4>
    1264:	01 50       	subi	r16, 0x01	; 1
    1266:	11 09       	sbc	r17, r1
    1268:	2f 4f       	sbci	r18, 0xFF	; 255
    126a:	3f 4f       	sbci	r19, 0xFF	; 255
    126c:	49 01       	movw	r8, r18
    126e:	bb 24       	eor	r11, r11
    1270:	97 fc       	sbrc	r9, 7
    1272:	b0 94       	com	r11
    1274:	ab 2c       	mov	r10, r11
    1276:	80 92 a1 00 	sts	0x00A1, r8
    127a:	90 92 a2 00 	sts	0x00A2, r9
    127e:	a0 92 a3 00 	sts	0x00A3, r10
    1282:	b0 92 a4 00 	sts	0x00A4, r11
					X2 = (-7357*p)/65536;
    1286:	a3 e4       	ldi	r26, 0x43	; 67
    1288:	b3 ee       	ldi	r27, 0xE3	; 227
    128a:	a7 01       	movw	r20, r14
    128c:	96 01       	movw	r18, r12
    128e:	b8 d0       	rcall	.+368    	; 0x1400 <__mulohisi3>
    1290:	8b 01       	movw	r16, r22
    1292:	9c 01       	movw	r18, r24
    1294:	99 23       	and	r25, r25
    1296:	24 f4       	brge	.+8      	; 0x12a0 <main+0xce8>
    1298:	01 50       	subi	r16, 0x01	; 1
    129a:	11 09       	sbc	r17, r1
    129c:	2f 4f       	sbci	r18, 0xFF	; 255
    129e:	3f 4f       	sbci	r19, 0xFF	; 255
    12a0:	c9 01       	movw	r24, r18
    12a2:	bb 27       	eor	r27, r27
    12a4:	97 fd       	sbrc	r25, 7
    12a6:	b0 95       	com	r27
    12a8:	ab 2f       	mov	r26, r27
    12aa:	80 93 82 00 	sts	0x0082, r24
    12ae:	90 93 83 00 	sts	0x0083, r25
    12b2:	a0 93 84 00 	sts	0x0084, r26
    12b6:	b0 93 85 00 	sts	0x0085, r27
					p = p+(X1+X2+3791)/16;
    12ba:	88 0e       	add	r8, r24
    12bc:	99 1e       	adc	r9, r25
    12be:	aa 1e       	adc	r10, r26
    12c0:	bb 1e       	adc	r11, r27
    12c2:	2f ec       	ldi	r18, 0xCF	; 207
    12c4:	82 0e       	add	r8, r18
    12c6:	2e e0       	ldi	r18, 0x0E	; 14
    12c8:	92 1e       	adc	r9, r18
    12ca:	a1 1c       	adc	r10, r1
    12cc:	b1 1c       	adc	r11, r1
    12ce:	d5 01       	movw	r26, r10
    12d0:	c4 01       	movw	r24, r8
    12d2:	1a f4       	brpl	.+6      	; 0x12da <main+0xd22>
    12d4:	0f 96       	adiw	r24, 0x0f	; 15
    12d6:	a1 1d       	adc	r26, r1
    12d8:	b1 1d       	adc	r27, r1
    12da:	68 94       	set
    12dc:	13 f8       	bld	r1, 3
    12de:	b5 95       	asr	r27
    12e0:	a7 95       	ror	r26
    12e2:	97 95       	ror	r25
    12e4:	87 95       	ror	r24
    12e6:	16 94       	lsr	r1
    12e8:	d1 f7       	brne	.-12     	; 0x12de <main+0xd26>
    12ea:	bc 01       	movw	r22, r24
    12ec:	cd 01       	movw	r24, r26
    12ee:	6c 0d       	add	r22, r12
    12f0:	7d 1d       	adc	r23, r13
    12f2:	8e 1d       	adc	r24, r14
    12f4:	9f 1d       	adc	r25, r15
    12f6:	60 93 6b 00 	sts	0x006B, r22
    12fa:	70 93 6c 00 	sts	0x006C, r23
    12fe:	80 93 6d 00 	sts	0x006D, r24
    1302:	90 93 6e 00 	sts	0x006E, r25
					k = p/100;
    1306:	24 e6       	ldi	r18, 0x64	; 100
    1308:	30 e0       	ldi	r19, 0x00	; 0
    130a:	40 e0       	ldi	r20, 0x00	; 0
    130c:	50 e0       	ldi	r21, 0x00	; 0
    130e:	50 d0       	rcall	.+160    	; 0x13b0 <__divmodsi4>
    1310:	20 93 86 00 	sts	0x0086, r18
    1314:	30 93 87 00 	sts	0x0087, r19
    1318:	40 93 88 00 	sts	0x0088, r20
    131c:	50 93 89 00 	sts	0x0089, r21
		if (~PINB & (1<<7))
		{
			if (butcount7<5) {butcount7++;}
			else
			{
				while (~PINB & (1<<7))
    1320:	b7 9b       	sbis	0x16, 7	; 22
    1322:	ab cd       	rjmp	.-1194   	; 0xe7a <main+0x8c2>
    1324:	0b c0       	rjmp	.+22     	; 0x133c <main+0xd84>
					k = p/100;
	
				}
			}
		}
		else {if (butcount7>0) {butcount7--;}}
    1326:	80 91 60 00 	lds	r24, 0x0060
    132a:	90 91 61 00 	lds	r25, 0x0061
    132e:	00 97       	sbiw	r24, 0x00	; 0
    1330:	29 f0       	breq	.+10     	; 0x133c <main+0xd84>
    1332:	01 97       	sbiw	r24, 0x01	; 1
    1334:	90 93 61 00 	sts	0x0061, r25
    1338:	80 93 60 00 	sts	0x0060, r24

			
			k = 0; 
    133c:	10 92 86 00 	sts	0x0086, r1
    1340:	10 92 87 00 	sts	0x0087, r1
    1344:	10 92 88 00 	sts	0x0088, r1
    1348:	10 92 89 00 	sts	0x0089, r1
		
    }
    134c:	48 c9       	rjmp	.-3440   	; 0x5de <main+0x26>

0000134e <__mulsi3>:
    134e:	db 01       	movw	r26, r22
    1350:	8f 93       	push	r24
    1352:	9f 93       	push	r25
    1354:	49 d0       	rcall	.+146    	; 0x13e8 <__muluhisi3>
    1356:	bf 91       	pop	r27
    1358:	af 91       	pop	r26
    135a:	a2 9f       	mul	r26, r18
    135c:	80 0d       	add	r24, r0
    135e:	91 1d       	adc	r25, r1
    1360:	a3 9f       	mul	r26, r19
    1362:	90 0d       	add	r25, r0
    1364:	b2 9f       	mul	r27, r18
    1366:	90 0d       	add	r25, r0
    1368:	11 24       	eor	r1, r1
    136a:	08 95       	ret

0000136c <__udivmodsi4>:
    136c:	a1 e2       	ldi	r26, 0x21	; 33
    136e:	1a 2e       	mov	r1, r26
    1370:	aa 1b       	sub	r26, r26
    1372:	bb 1b       	sub	r27, r27
    1374:	fd 01       	movw	r30, r26
    1376:	0d c0       	rjmp	.+26     	; 0x1392 <__udivmodsi4_ep>

00001378 <__udivmodsi4_loop>:
    1378:	aa 1f       	adc	r26, r26
    137a:	bb 1f       	adc	r27, r27
    137c:	ee 1f       	adc	r30, r30
    137e:	ff 1f       	adc	r31, r31
    1380:	a2 17       	cp	r26, r18
    1382:	b3 07       	cpc	r27, r19
    1384:	e4 07       	cpc	r30, r20
    1386:	f5 07       	cpc	r31, r21
    1388:	20 f0       	brcs	.+8      	; 0x1392 <__udivmodsi4_ep>
    138a:	a2 1b       	sub	r26, r18
    138c:	b3 0b       	sbc	r27, r19
    138e:	e4 0b       	sbc	r30, r20
    1390:	f5 0b       	sbc	r31, r21

00001392 <__udivmodsi4_ep>:
    1392:	66 1f       	adc	r22, r22
    1394:	77 1f       	adc	r23, r23
    1396:	88 1f       	adc	r24, r24
    1398:	99 1f       	adc	r25, r25
    139a:	1a 94       	dec	r1
    139c:	69 f7       	brne	.-38     	; 0x1378 <__udivmodsi4_loop>
    139e:	60 95       	com	r22
    13a0:	70 95       	com	r23
    13a2:	80 95       	com	r24
    13a4:	90 95       	com	r25
    13a6:	9b 01       	movw	r18, r22
    13a8:	ac 01       	movw	r20, r24
    13aa:	bd 01       	movw	r22, r26
    13ac:	cf 01       	movw	r24, r30
    13ae:	08 95       	ret

000013b0 <__divmodsi4>:
    13b0:	05 2e       	mov	r0, r21
    13b2:	97 fb       	bst	r25, 7
    13b4:	16 f4       	brtc	.+4      	; 0x13ba <__divmodsi4+0xa>
    13b6:	00 94       	com	r0
    13b8:	0f d0       	rcall	.+30     	; 0x13d8 <__negsi2>
    13ba:	57 fd       	sbrc	r21, 7
    13bc:	05 d0       	rcall	.+10     	; 0x13c8 <__divmodsi4_neg2>
    13be:	d6 df       	rcall	.-84     	; 0x136c <__udivmodsi4>
    13c0:	07 fc       	sbrc	r0, 7
    13c2:	02 d0       	rcall	.+4      	; 0x13c8 <__divmodsi4_neg2>
    13c4:	46 f4       	brtc	.+16     	; 0x13d6 <__divmodsi4_exit>
    13c6:	08 c0       	rjmp	.+16     	; 0x13d8 <__negsi2>

000013c8 <__divmodsi4_neg2>:
    13c8:	50 95       	com	r21
    13ca:	40 95       	com	r20
    13cc:	30 95       	com	r19
    13ce:	21 95       	neg	r18
    13d0:	3f 4f       	sbci	r19, 0xFF	; 255
    13d2:	4f 4f       	sbci	r20, 0xFF	; 255
    13d4:	5f 4f       	sbci	r21, 0xFF	; 255

000013d6 <__divmodsi4_exit>:
    13d6:	08 95       	ret

000013d8 <__negsi2>:
    13d8:	90 95       	com	r25
    13da:	80 95       	com	r24
    13dc:	70 95       	com	r23
    13de:	61 95       	neg	r22
    13e0:	7f 4f       	sbci	r23, 0xFF	; 255
    13e2:	8f 4f       	sbci	r24, 0xFF	; 255
    13e4:	9f 4f       	sbci	r25, 0xFF	; 255
    13e6:	08 95       	ret

000013e8 <__muluhisi3>:
    13e8:	0f d0       	rcall	.+30     	; 0x1408 <__umulhisi3>
    13ea:	a5 9f       	mul	r26, r21
    13ec:	90 0d       	add	r25, r0
    13ee:	b4 9f       	mul	r27, r20
    13f0:	90 0d       	add	r25, r0
    13f2:	a4 9f       	mul	r26, r20
    13f4:	80 0d       	add	r24, r0
    13f6:	91 1d       	adc	r25, r1
    13f8:	11 24       	eor	r1, r1
    13fa:	08 95       	ret

000013fc <__mulshisi3>:
    13fc:	b7 ff       	sbrs	r27, 7
    13fe:	f4 cf       	rjmp	.-24     	; 0x13e8 <__muluhisi3>

00001400 <__mulohisi3>:
    1400:	f3 df       	rcall	.-26     	; 0x13e8 <__muluhisi3>
    1402:	82 1b       	sub	r24, r18
    1404:	93 0b       	sbc	r25, r19
    1406:	08 95       	ret

00001408 <__umulhisi3>:
    1408:	a2 9f       	mul	r26, r18
    140a:	b0 01       	movw	r22, r0
    140c:	b3 9f       	mul	r27, r19
    140e:	c0 01       	movw	r24, r0
    1410:	a3 9f       	mul	r26, r19
    1412:	01 d0       	rcall	.+2      	; 0x1416 <__umulhisi3+0xe>
    1414:	b2 9f       	mul	r27, r18
    1416:	70 0d       	add	r23, r0
    1418:	81 1d       	adc	r24, r1
    141a:	11 24       	eor	r1, r1
    141c:	91 1d       	adc	r25, r1
    141e:	08 95       	ret

00001420 <_exit>:
    1420:	f8 94       	cli

00001422 <__stop_program>:
    1422:	ff cf       	rjmp	.-2      	; 0x1422 <__stop_program>
